
/home/axel/chipyard/generators/monitoring/tests/generated/binBitFacIns2Small2Sets/bitcount-fac/bitcount-fac.riscv:     file format elf64-littleriscv


Disassembly of section .text:

0000000080000000 <_start>:
    .global _start
    .type _start, @function
_start:
    .cfi_startproc

    li x1, 0
    80000000:	       4081                	li	ra,0
    li x2, 0
    80000002:	       4101                	li	sp,0
    li x3, 0
    80000004:	       4181                	li	gp,0
    li x4, 0
    80000006:	       4201                	li	tp,0
    li x5, 0
    80000008:	       4281                	li	t0,0
    li x6, 0
    8000000a:	       4301                	li	t1,0
    li x7, 0
    8000000c:	       4381                	li	t2,0
    li x8, 0
    8000000e:	       4401                	li	s0,0
    li x9, 0
    80000010:	       4481                	li	s1,0
    li x10, 0
    80000012:	       4501                	li	a0,0
    li x11, 0
    80000014:	       4581                	li	a1,0
    li x12, 0
    80000016:	       4601                	li	a2,0
    li x13, 0
    80000018:	       4681                	li	a3,0
    li x14, 0
    8000001a:	       4701                	li	a4,0
    li x15, 0
    8000001c:	       4781                	li	a5,0
    li x16, 0
    8000001e:	       4801                	li	a6,0
    li x17, 0
    80000020:	       4881                	li	a7,0
    li x18, 0
    80000022:	       4901                	li	s2,0
    li x19, 0
    80000024:	       4981                	li	s3,0
    li x20, 0
    80000026:	       4a01                	li	s4,0
    li x21, 0
    80000028:	       4a81                	li	s5,0
    li x22, 0
    8000002a:	       4b01                	li	s6,0
    li x23, 0
    8000002c:	       4b81                	li	s7,0
    li x24, 0
    8000002e:	       4c01                	li	s8,0
    li x25, 0
    80000030:	       4c81                	li	s9,0
    li x26, 0
    80000032:	       4d01                	li	s10,0
    li x27, 0
    80000034:	       4d81                	li	s11,0
    li x28, 0
    80000036:	       4e01                	li	t3,0
    li x29, 0
    80000038:	       4e81                	li	t4,0
    li x30, 0
    8000003a:	       4f01                	li	t5,0
    li x31, 0
    8000003c:	       4f81                	li	t6,0

    li t0, (MSTATUS_FS | MSTATUS_XS)
    8000003e:	       62f9                	lui	t0,0x1e
    csrs mstatus, t0
    80000040:	       3002a073          	csrs	mstatus,t0

#ifdef __riscv_flen
    /* Initialize FPU if present */
    la t0, 1f
    80000044:	       00000297          	auipc	t0,0x0
    80000048:	       09028293          	addi	t0,t0,144 # 800000d4 <_start+0xd4>
    csrw mtvec, t0
    8000004c:	       30529073          	csrw	mtvec,t0

    fscsr zero
    80000050:	       00301073          	fscsr	zero
    fmv.s.x f0,  zero
    80000054:	       f0000053          	fmv.w.x	ft0,zero
    fmv.s.x f1,  zero
    80000058:	       f00000d3          	fmv.w.x	ft1,zero
    fmv.s.x f2,  zero
    8000005c:	       f0000153          	fmv.w.x	ft2,zero
    fmv.s.x f3,  zero
    80000060:	       f00001d3          	fmv.w.x	ft3,zero
    fmv.s.x f4,  zero
    80000064:	       f0000253          	fmv.w.x	ft4,zero
    fmv.s.x f5,  zero
    80000068:	       f00002d3          	fmv.w.x	ft5,zero
    fmv.s.x f6,  zero
    8000006c:	       f0000353          	fmv.w.x	ft6,zero
    fmv.s.x f7,  zero
    80000070:	       f00003d3          	fmv.w.x	ft7,zero
    fmv.s.x f8,  zero
    80000074:	       f0000453          	fmv.w.x	fs0,zero
    fmv.s.x f9,  zero
    80000078:	       f00004d3          	fmv.w.x	fs1,zero
    fmv.s.x f10, zero
    8000007c:	       f0000553          	fmv.w.x	fa0,zero
    fmv.s.x f11, zero
    80000080:	       f00005d3          	fmv.w.x	fa1,zero
    fmv.s.x f12, zero
    80000084:	       f0000653          	fmv.w.x	fa2,zero
    fmv.s.x f13, zero
    80000088:	       f00006d3          	fmv.w.x	fa3,zero
    fmv.s.x f14, zero
    8000008c:	       f0000753          	fmv.w.x	fa4,zero
    fmv.s.x f15, zero
    80000090:	       f00007d3          	fmv.w.x	fa5,zero
    fmv.s.x f16, zero
    80000094:	       f0000853          	fmv.w.x	fa6,zero
    fmv.s.x f17, zero
    80000098:	       f00008d3          	fmv.w.x	fa7,zero
    fmv.s.x f18, zero
    8000009c:	       f0000953          	fmv.w.x	fs2,zero
    fmv.s.x f19, zero
    800000a0:	       f00009d3          	fmv.w.x	fs3,zero
    fmv.s.x f20, zero
    800000a4:	       f0000a53          	fmv.w.x	fs4,zero
    fmv.s.x f21, zero
    800000a8:	       f0000ad3          	fmv.w.x	fs5,zero
    fmv.s.x f22, zero
    800000ac:	       f0000b53          	fmv.w.x	fs6,zero
    fmv.s.x f23, zero
    800000b0:	       f0000bd3          	fmv.w.x	fs7,zero
    fmv.s.x f24, zero
    800000b4:	       f0000c53          	fmv.w.x	fs8,zero
    fmv.s.x f25, zero
    800000b8:	       f0000cd3          	fmv.w.x	fs9,zero
    fmv.s.x f26, zero
    800000bc:	       f0000d53          	fmv.w.x	fs10,zero
    fmv.s.x f27, zero
    800000c0:	       f0000dd3          	fmv.w.x	fs11,zero
    fmv.s.x f28, zero
    800000c4:	       f0000e53          	fmv.w.x	ft8,zero
    fmv.s.x f29, zero
    800000c8:	       f0000ed3          	fmv.w.x	ft9,zero
    fmv.s.x f30, zero
    800000cc:	       f0000f53          	fmv.w.x	ft10,zero
    fmv.s.x f31, zero
    800000d0:	       f0000fd3          	fmv.w.x	ft11,zero

    /* Initialize global pointer; disable relaxation to avoid relaxing
       the address calculation to "addi gp, gp, 0" */
    .option push
    .option norelax
    la gp, __global_pointer$
    800000d4:	       00003197          	auipc	gp,0x3
    800000d8:	       fec18193          	addi	gp,gp,-20 # 800030c0 <__global_pointer$>
    .option pop

    /* Initialize thread pointer */
    csrr s0, mhartid
    800000dc:	       f1402473          	csrr	s0,mhartid
    lui t0, %hi(__stack_shift)
    addi t0, t0, %lo(__stack_shift)
    800000e0:	       00f00293          	li	t0,15
    la tp, __stack_start
    800000e4:	       00023217          	auipc	tp,0x23
    800000e8:	       f1c20213          	addi	tp,tp,-228 # 80023000 <__heap_end>
    sll t0, s0, t0
    800000ec:	       005412b3          	sll	t0,s0,t0
    add tp, tp, t0
    800000f0:	       9216                	add	tp,tp,t0

    /* Initialize stack pointer */
    lui t0, %hi(__stack_size)
    800000f2:	       62a1                	lui	t0,0x8
    addi t0, t0, %lo(__stack_size)
    800000f4:	       00028293          	mv	t0,t0
    add sp, tp, t0
    800000f8:	       00520133          	add	sp,tp,t0

    /* Initialize trap vector */
    la t0, trap_entry
    800000fc:	       00000297          	auipc	t0,0x0
    80000100:	       04428293          	addi	t0,t0,68 # 80000140 <trap_entry>
    csrw mtvec, t0
    80000104:	       30529073          	csrw	mtvec,t0

    /* Initialize TLS */
    call __init_tls
    80000108:	       03a020ef          	jal	ra,80002142 <__init_tls>

    /* Skip global initialization if not the designated boot hart */
    la t0, __boot_hart
    8000010c:	       00000293          	li	t0,0
    bne s0, t0, _start_secondary
    80000110:	   [38;5;194m/--[0m 00540463          	beq	s0,t0,80000118 <_start+0x118>
    80000114:	   [38;5;194m|[0m   0f60006f          	j	8000020a <_start_secondary>

    /* Zero BSS segment */
    la t0, __bss_start
    80000118:	   [38;5;194m\->[0m 82818293          	addi	t0,gp,-2008 # 800028e8 <sense.0>
    la t1, __bss_end
    8000011c:	       bb018313          	addi	t1,gp,-1104 # 80002c70 <_end>
    bgeu t0, t1, 2f
    80000120:	[38;5;228m/[38;5;228m-[38;5;228m-[38;5;228m-[38;5;228m-[38;5;228m-[0m 0062f763          	bgeu	t0,t1,8000012e <_start+0x12e>
1:
    SREG zero, (t0)
    80000124:	[38;5;228m|[0m  [38;5;146m/[38;5;146m-[38;5;146m>[0m 0002b023          	sd	zero,0(t0)
    addi t0, t0, REGBYTES
    80000128:	[38;5;228m|[0m  [38;5;146m|[0m   02a1                	addi	t0,t0,8
    bltu t0, t1, 1b
    8000012a:	[38;5;228m|[0m  [38;5;146m\[38;5;146m-[38;5;146m-[0m fe62ede3          	bltu	t0,t1,80000124 <_start+0x124>
2:

    /* Call global constructors */
    la a0, __libc_fini_array
    8000012e:	[38;5;228m\[38;5;228m-[38;5;228m-[38;5;228m-[38;5;228m-[38;5;228m>[0m 00002517          	auipc	a0,0x2
    80000132:	       0ec50513          	addi	a0,a0,236 # 8000221a <__libc_fini_array>
    call atexit
    80000136:	       0a8020ef          	jal	ra,800021de <atexit>
    call __libc_init_array
    8000013a:	       116020ef          	jal	ra,80002250 <__libc_init_array>

    /* Call main function */
    tail _start_main
    8000013e:	       a075                	j	800001ea <_start_main>

0000000080000140 <trap_entry>:
    .cfi_endproc


    .align 2
trap_entry:
    csrw mscratch, sp
    80000140:	34011073          	csrw	mscratch,sp
    addi sp, sp, -(32*REGBYTES)
    80000144:	7111                	addi	sp,sp,-256

    /* Save trap frame */
    SREG x1, 1*REGBYTES(sp)
    80000146:	e406                	sd	ra,8(sp)
    csrr x1, mscratch
    80000148:	340020f3          	csrr	ra,mscratch
    SREG x1, 2*REGBYTES(sp)
    8000014c:	e806                	sd	ra,16(sp)
    SREG x3, 3*REGBYTES(sp)
    8000014e:	ec0e                	sd	gp,24(sp)
    SREG x4, 4*REGBYTES(sp)
    80000150:	f012                	sd	tp,32(sp)
    SREG x5, 5*REGBYTES(sp)
    80000152:	f416                	sd	t0,40(sp)
    SREG x6, 6*REGBYTES(sp)
    80000154:	f81a                	sd	t1,48(sp)
    SREG x7, 7*REGBYTES(sp)
    80000156:	fc1e                	sd	t2,56(sp)
    SREG x8, 8*REGBYTES(sp)
    80000158:	e0a2                	sd	s0,64(sp)
    SREG x9, 9*REGBYTES(sp)
    8000015a:	e4a6                	sd	s1,72(sp)
    SREG x10, 10*REGBYTES(sp)
    8000015c:	e8aa                	sd	a0,80(sp)
    SREG x11, 11*REGBYTES(sp)
    8000015e:	ecae                	sd	a1,88(sp)
    SREG x12, 12*REGBYTES(sp)
    80000160:	f0b2                	sd	a2,96(sp)
    SREG x13, 13*REGBYTES(sp)
    80000162:	f4b6                	sd	a3,104(sp)
    SREG x14, 14*REGBYTES(sp)
    80000164:	f8ba                	sd	a4,112(sp)
    SREG x15, 15*REGBYTES(sp)
    80000166:	fcbe                	sd	a5,120(sp)
    SREG x16, 16*REGBYTES(sp)
    80000168:	e142                	sd	a6,128(sp)
    SREG x17, 17*REGBYTES(sp)
    8000016a:	e546                	sd	a7,136(sp)
    SREG x18, 18*REGBYTES(sp)
    8000016c:	e94a                	sd	s2,144(sp)
    SREG x19, 19*REGBYTES(sp)
    8000016e:	ed4e                	sd	s3,152(sp)
    SREG x20, 20*REGBYTES(sp)
    80000170:	f152                	sd	s4,160(sp)
    SREG x21, 21*REGBYTES(sp)
    80000172:	f556                	sd	s5,168(sp)
    SREG x22, 22*REGBYTES(sp)
    80000174:	f95a                	sd	s6,176(sp)
    SREG x23, 23*REGBYTES(sp)
    80000176:	fd5e                	sd	s7,184(sp)
    SREG x24, 24*REGBYTES(sp)
    80000178:	e1e2                	sd	s8,192(sp)
    SREG x25, 25*REGBYTES(sp)
    8000017a:	e5e6                	sd	s9,200(sp)
    SREG x26, 26*REGBYTES(sp)
    8000017c:	e9ea                	sd	s10,208(sp)
    SREG x27, 27*REGBYTES(sp)
    8000017e:	edee                	sd	s11,216(sp)
    SREG x28, 28*REGBYTES(sp)
    80000180:	f1f2                	sd	t3,224(sp)
    SREG x29, 29*REGBYTES(sp)
    80000182:	f5f6                	sd	t4,232(sp)
    SREG x30, 30*REGBYTES(sp)
    80000184:	f9fa                	sd	t5,240(sp)
    SREG x31, 31*REGBYTES(sp)
    80000186:	fdfe                	sd	t6,248(sp)

    /* Invoke higher-level trap handler */
    csrr a0, mepc
    80000188:	34102573          	csrr	a0,mepc
    csrr a1, mcause
    8000018c:	342025f3          	csrr	a1,mcause
    csrr a2, mtval
    80000190:	34302673          	csrr	a2,mtval
    mv a3, sp
    80000194:	868a                	mv	a3,sp
    call handle_trap
    80000196:	797010ef          	jal	ra,8000212c <handle_trap>
    csrw mepc, a0
    8000019a:	34151073          	csrw	mepc,a0

    /* Remain in M-mode after return */
    li t0, MSTATUS_MPP
    8000019e:	6289                	lui	t0,0x2
    800001a0:	8002829b          	addiw	t0,t0,-2048 # 1800 <__stack_align+0x17f0>
    csrs mstatus, t0
    800001a4:	3002a073          	csrs	mstatus,t0

    LREG x1, 1*REGBYTES(sp)
    800001a8:	60a2                	ld	ra,8(sp)
    LREG x3, 3*REGBYTES(sp)
    800001aa:	61e2                	ld	gp,24(sp)
    LREG x4, 4*REGBYTES(sp)
    800001ac:	7202                	ld	tp,32(sp)
    LREG x5, 5*REGBYTES(sp)
    800001ae:	72a2                	ld	t0,40(sp)
    LREG x6, 6*REGBYTES(sp)
    800001b0:	7342                	ld	t1,48(sp)
    LREG x7, 7*REGBYTES(sp)
    800001b2:	73e2                	ld	t2,56(sp)
    LREG x8, 8*REGBYTES(sp)
    800001b4:	6406                	ld	s0,64(sp)
    LREG x9, 9*REGBYTES(sp)
    800001b6:	64a6                	ld	s1,72(sp)
    LREG x10, 10*REGBYTES(sp)
    800001b8:	6546                	ld	a0,80(sp)
    LREG x11, 11*REGBYTES(sp)
    800001ba:	65e6                	ld	a1,88(sp)
    LREG x12, 12*REGBYTES(sp)
    800001bc:	7606                	ld	a2,96(sp)
    LREG x13, 13*REGBYTES(sp)
    800001be:	76a6                	ld	a3,104(sp)
    LREG x14, 14*REGBYTES(sp)
    800001c0:	7746                	ld	a4,112(sp)
    LREG x15, 15*REGBYTES(sp)
    800001c2:	77e6                	ld	a5,120(sp)
    LREG x16, 16*REGBYTES(sp)
    800001c4:	680a                	ld	a6,128(sp)
    LREG x17, 17*REGBYTES(sp)
    800001c6:	68aa                	ld	a7,136(sp)
    LREG x18, 18*REGBYTES(sp)
    800001c8:	694a                	ld	s2,144(sp)
    LREG x19, 19*REGBYTES(sp)
    800001ca:	69ea                	ld	s3,152(sp)
    LREG x20, 20*REGBYTES(sp)
    800001cc:	7a0a                	ld	s4,160(sp)
    LREG x21, 21*REGBYTES(sp)
    800001ce:	7aaa                	ld	s5,168(sp)
    LREG x22, 22*REGBYTES(sp)
    800001d0:	7b4a                	ld	s6,176(sp)
    LREG x23, 23*REGBYTES(sp)
    800001d2:	7bea                	ld	s7,184(sp)
    LREG x24, 24*REGBYTES(sp)
    800001d4:	6c0e                	ld	s8,192(sp)
    LREG x25, 25*REGBYTES(sp)
    800001d6:	6cae                	ld	s9,200(sp)
    LREG x26, 26*REGBYTES(sp)
    800001d8:	6d4e                	ld	s10,208(sp)
    LREG x27, 27*REGBYTES(sp)
    800001da:	6dee                	ld	s11,216(sp)
    LREG x28, 28*REGBYTES(sp)
    800001dc:	7e0e                	ld	t3,224(sp)
    LREG x29, 29*REGBYTES(sp)
    800001de:	7eae                	ld	t4,232(sp)
    LREG x30, 30*REGBYTES(sp)
    800001e0:	7f4e                	ld	t5,240(sp)
    LREG x31, 31*REGBYTES(sp)
    800001e2:	7fee                	ld	t6,248(sp)
    /* Restore sp last */
    LREG x2, 2*REGBYTES(sp)
    800001e4:	6142                	ld	sp,16(sp)

    mret
    800001e6:	30200073          	mret

00000000800001ea <_start_main>:
    .endm

    .global _start_main
    .type _start_main, @function
_start_main:
    BARRIER_PASS __boot_sync
    800001ea:	52fd                	li	t0,-1
    800001ec:	0110000f          	fence	w,w
    800001f0:	a851a823          	sw	t0,-1392(gp) # 80002b50 <__boot_sync>
    ENTER main
    800001f4:	4505                	li	a0,1
    800001f6:	00002597          	auipc	a1,0x2
    800001fa:	5b258593          	addi	a1,a1,1458 # 800027a8 <argv>
    800001fe:	8101b603          	ld	a2,-2032(gp) # 800028d0 <environ>
    80000202:	02a000ef          	jal	ra,8000022c <main>
    80000206:	7ed0106f          	j	800021f2 <exit>

000000008000020a <_start_secondary>:

    .global _start_secondary
    .type _start_secondary, @function
_start_secondary:
    /* Synchronize secondary harts */
    BARRIER_WAIT __boot_sync
    8000020a:	[38;5;140m/[38;5;140m-[38;5;140m>[0m a901a283          	lw	t0,-1392(gp) # 80002b50 <__boot_sync>
    8000020e:	[38;5;140m\[38;5;140m-[38;5;140m-[0m fe028ee3          	beqz	t0,8000020a <_start_secondary>
    80000212:	    0220000f          	fence	r,r
    ENTER __main
    80000216:	    4505                	li	a0,1
    80000218:	    00002597          	auipc	a1,0x2
    8000021c:	    59058593          	addi	a1,a1,1424 # 800027a8 <argv>
    80000220:	    8101b603          	ld	a2,-2032(gp) # 800028d0 <environ>
    80000224:	    0ec000ef          	jal	ra,80000310 <__main>
    80000228:	    7cb0106f          	j	800021f2 <exit>

000000008000022c <main>:
    8000022c:	1141                	addi	sp,sp,-16
    8000022e:	e406                	sd	ra,8(sp)
    80000230:	0e0000ef          	jal	ra,80000310 <__main>
    80000234:	60a2                	ld	ra,8(sp)
    80000236:	4501                	li	a0,0
    80000238:	0141                	addi	sp,sp,16
    8000023a:	8082                	ret

000000008000023c <start_logger>:
    8000023c:	6789                	lui	a5,0x2
    8000023e:	4705                	li	a4,1
    80000240:	c398                	sw	a4,0(a5)
    80000242:	8082                	ret

0000000080000244 <stop_logger>:
    80000244:	6789                	lui	a5,0x2
    80000246:	4705                	li	a4,1
    80000248:	c3d8                	sw	a4,4(a5)
    8000024a:	8082                	ret

000000008000024c <print_log>:
    8000024c:	       711d                	addi	sp,sp,-96
    8000024e:	       6789                	lui	a5,0x2
    80000250:	       e0ca                	sd	s2,64(sp)
    80000252:	       00c7a903          	lw	s2,12(a5) # 200c <__stack_align+0x1ffc>
    80000256:	       ec86                	sd	ra,88(sp)
    80000258:	       e8a2                	sd	s0,80(sp)
    8000025a:	       e4a6                	sd	s1,72(sp)
    8000025c:	       fc4e                	sd	s3,56(sp)
    8000025e:	[38;5;176m/[38;5;176m-[38;5;176m-[38;5;176m-[38;5;176m-[38;5;176m-[0m 05205963          	blez	s2,800002b0 <print_log+0x64>
    80000262:	[38;5;176m|[0m      4481                	li	s1,0
    80000264:	[38;5;176m|[0m      6409                	lui	s0,0x2
    80000266:	[38;5;176m|[0m      00002997          	auipc	s3,0x2
    8000026a:	[38;5;176m|[0m      18a98993          	addi	s3,s3,394 # 800023f0 <__tbss_end>
    8000026e:	[38;5;176m|[0m  [38;5;196m/[38;5;196m-[38;5;196m>[0m 0004879b          	sext.w	a5,s1
    80000272:	[38;5;176m|[0m  [38;5;196m|[0m   c41c                	sw	a5,8(s0)
    80000274:	[38;5;176m|[0m  [38;5;196m|[0m   680c                	ld	a1,16(s0)
    80000276:	[38;5;176m|[0m  [38;5;196m|[0m   6c10                	ld	a2,24(s0)
    80000278:	[38;5;176m|[0m  [38;5;196m|[0m   7014                	ld	a3,32(s0)
    8000027a:	[38;5;176m|[0m  [38;5;196m|[0m   7418                	ld	a4,40(s0)
    8000027c:	[38;5;176m|[0m  [38;5;196m|[0m   781c                	ld	a5,48(s0)
    8000027e:	[38;5;176m|[0m  [38;5;196m|[0m   03843803          	ld	a6,56(s0) # 2038 <__stack_align+0x2028>
    80000282:	[38;5;176m|[0m  [38;5;196m|[0m   04043883          	ld	a7,64(s0)
    80000286:	[38;5;176m|[0m  [38;5;196m|[0m   6428                	ld	a0,72(s0)
    80000288:	[38;5;176m|[0m  [38;5;196m|[0m   05043303          	ld	t1,80(s0)
    8000028c:	[38;5;176m|[0m  [38;5;196m|[0m   05843e03          	ld	t3,88(s0)
    80000290:	[38;5;176m|[0m  [38;5;196m|[0m   06043f03          	ld	t5,96(s0)
    80000294:	[38;5;176m|[0m  [38;5;196m|[0m   06843e83          	ld	t4,104(s0)
    80000298:	[38;5;176m|[0m  [38;5;196m|[0m   2485                	addiw	s1,s1,1
    8000029a:	[38;5;176m|[0m  [38;5;196m|[0m   e02a                	sd	a0,0(sp)
    8000029c:	[38;5;176m|[0m  [38;5;196m|[0m   ec7a                	sd	t5,24(sp)
    8000029e:	[38;5;176m|[0m  [38;5;196m|[0m   f076                	sd	t4,32(sp)
    800002a0:	[38;5;176m|[0m  [38;5;196m|[0m   e872                	sd	t3,16(sp)
    800002a2:	[38;5;176m|[0m  [38;5;196m|[0m   e41a                	sd	t1,8(sp)
    800002a4:	[38;5;176m|[0m  [38;5;196m|[0m   2601                	sext.w	a2,a2
    800002a6:	[38;5;176m|[0m  [38;5;196m|[0m   854e                	mv	a0,s3
    800002a8:	[38;5;176m|[0m  [38;5;196m|[0m   6ec000ef          	jal	ra,80000994 <iprintf>
    800002ac:	[38;5;176m|[0m  [38;5;196m\[38;5;196m-[38;5;196m-[0m fc9911e3          	bne	s2,s1,8000026e <print_log+0x22>
    800002b0:	[38;5;176m\[38;5;176m-[38;5;176m-[38;5;176m-[38;5;176m-[38;5;176m>[0m 60e6                	ld	ra,88(sp)
    800002b2:	       6446                	ld	s0,80(sp)
    800002b4:	       64a6                	ld	s1,72(sp)
    800002b6:	       6906                	ld	s2,64(sp)
    800002b8:	       79e2                	ld	s3,56(sp)
    800002ba:	       6125                	addi	sp,sp,96
    800002bc:	       8082                	ret

00000000800002be <barrier>:
    800002be:	       0ff0000f          	fence
    800002c2:	       00022703          	lw	a4,0(tp) # 0 <__boot_hart>
    800002c6:	       82c18693          	addi	a3,gp,-2004 # 800028ec <count.1>
    800002ca:	       4605                	li	a2,1
    800002cc:	       00173713          	seqz	a4,a4
    800002d0:	       00e22023          	sw	a4,0(tp) # 0 <__boot_hart>
    800002d4:	       0f50000f          	fence	iorw,ow
    800002d8:	       04c6a72f          	amoadd.w.aq	a4,a2,(a3)
    800002dc:	       2701                	sext.w	a4,a4
    800002de:	       4685                	li	a3,1
    800002e0:	[38;5;153m/[38;5;153m-[38;5;153m-[38;5;153m-[38;5;153m-[38;5;153m-[0m 00d70c63          	beq	a4,a3,800002f8 <barrier+0x3a>
    800002e4:	[38;5;153m|[0m      00022683          	lw	a3,0(tp) # 0 <__boot_hart>
    800002e8:	[38;5;153m|[0m      82818713          	addi	a4,gp,-2008 # 800028e8 <sense.0>
    800002ec:	[38;5;153m|[0m  [38;5;230m/[38;5;230m-[38;5;230m>[0m 431c                	lw	a5,0(a4)
    800002ee:	[38;5;153m|[0m  [38;5;230m\[38;5;230m-[38;5;230m-[0m fed79fe3          	bne	a5,a3,800002ec <barrier+0x2e>
    800002f2:	[38;5;153m|[0m      0ff0000f          	fence
    800002f6:	[38;5;153m|[0m      8082                	ret
    800002f8:	[38;5;153m\[38;5;153m-[38;5;153m-[38;5;153m-[38;5;153m-[38;5;153m>[0m 00022783          	lw	a5,0(tp) # 0 <__boot_hart>
    800002fc:	       8201a623          	sw	zero,-2004(gp) # 800028ec <count.1>
    80000300:	       82f1a423          	sw	a5,-2008(gp) # 800028e8 <sense.0>
    80000304:	       0ff0000f          	fence
    80000308:	       8082                	ret

000000008000030a <read_cycles>:
    8000030a:	c0002573          	rdcycle	a0
    8000030e:	8082                	ret

0000000080000310 <__main>:
    80000310:	       1101                	addi	sp,sp,-32
    80000312:	       ec06                	sd	ra,24(sp)
    80000314:	       e822                	sd	s0,16(sp)
    80000316:	       e426                	sd	s1,8(sp)
    80000318:	       e04a                	sd	s2,0(sp)
    8000031a:	       f1402473          	csrr	s0,mhartid
    8000031e:	       4785                	li	a5,1
    80000320:	[38;5;200m/[38;5;200m-[38;5;200m-[38;5;200m-[38;5;200m-[38;5;200m-[0m 0087f363          	bgeu	a5,s0,80000326 <__main+0x16>
    80000324:	[38;5;200m|[0m  [38;5;161m/[38;5;161m-[38;5;161m-[0m a001                	j	80000324 <__main+0x14>
    80000326:	[38;5;200m\[38;5;200m-[38;5;200m-[38;5;200m-[38;5;200m-[38;5;200m>[0m f99ff0ef          	jal	ra,800002be <barrier>
    8000032a:	   [38;5;137m/[38;5;137m-[38;5;137m-[0m e839                	bnez	s0,80000380 <__main+0x70>
    8000032c:	   [38;5;137m|[0m   f11ff0ef          	jal	ra,8000023c <start_logger>
    80000330:	   [38;5;137m|[0m   f8fff0ef          	jal	ra,800002be <barrier>
    80000334:	   [38;5;137m|[0m   c00024f3          	rdcycle	s1
    80000338:	   [38;5;137m|[0m   46c000ef          	jal	ra,800007a4 <task_0>
    8000033c:	   [38;5;137m|[0m   842a                	mv	s0,a0
    8000033e:	   [38;5;137m|[0m   c0002973          	rdcycle	s2
    80000342:	   [38;5;137m|[0m   f7dff0ef          	jal	ra,800002be <barrier>
    80000346:	   [38;5;137m|[0m   effff0ef          	jal	ra,80000244 <stop_logger>
    8000034a:	   [38;5;137m|[0m   f75ff0ef          	jal	ra,800002be <barrier>
    8000034e:	   [38;5;137m|[0m   85a2                	mv	a1,s0
    80000350:	   [38;5;137m|[0m   00002517          	auipc	a0,0x2
    80000354:	   [38;5;137m|[0m   0e050513          	addi	a0,a0,224 # 80002430 <__tbss_end+0x40>
    80000358:	   [38;5;137m|[0m   63c000ef          	jal	ra,80000994 <iprintf>
    8000035c:	   [38;5;137m|[0m   409905bb          	subw	a1,s2,s1
    80000360:	   [38;5;137m|[0m   00002517          	auipc	a0,0x2
    80000364:	   [38;5;137m|[0m   0d850513          	addi	a0,a0,216 # 80002438 <__tbss_end+0x48>
    80000368:	   [38;5;137m|[0m   62c000ef          	jal	ra,80000994 <iprintf>
    8000036c:	   [38;5;137m|[0m   f53ff0ef          	jal	ra,800002be <barrier>
    80000370:	   [38;5;137m|[0m   f4fff0ef          	jal	ra,800002be <barrier>
    80000374:	   [38;5;137m|[0m   6442                	ld	s0,16(sp)
    80000376:	   [38;5;137m|[0m   60e2                	ld	ra,24(sp)
    80000378:	   [38;5;137m|[0m   64a2                	ld	s1,8(sp)
    8000037a:	   [38;5;137m|[0m   6902                	ld	s2,0(sp)
    8000037c:	   [38;5;137m|[0m   6105                	addi	sp,sp,32
    8000037e:	   [38;5;137m|[0m   b5f9                	j	8000024c <print_log>
    80000380:	   [38;5;137m\[38;5;137m-[38;5;137m>[0m f3fff0ef          	jal	ra,800002be <barrier>
    80000384:	       c00024f3          	rdcycle	s1
    80000388:	       588000ef          	jal	ra,80000910 <task_1>
    8000038c:	       842a                	mv	s0,a0
    8000038e:	       c0002973          	rdcycle	s2
    80000392:	       f2dff0ef          	jal	ra,800002be <barrier>
    80000396:	       f29ff0ef          	jal	ra,800002be <barrier>
    8000039a:	       f25ff0ef          	jal	ra,800002be <barrier>
    8000039e:	       85a2                	mv	a1,s0
    800003a0:	       00002517          	auipc	a0,0x2
    800003a4:	       08050513          	addi	a0,a0,128 # 80002420 <__tbss_end+0x30>
    800003a8:	       5ec000ef          	jal	ra,80000994 <iprintf>
    800003ac:	       409905bb          	subw	a1,s2,s1
    800003b0:	       00002517          	auipc	a0,0x2
    800003b4:	       07850513          	addi	a0,a0,120 # 80002428 <__tbss_end+0x38>
    800003b8:	       5dc000ef          	jal	ra,80000994 <iprintf>
    800003bc:	       f03ff0ef          	jal	ra,800002be <barrier>
    800003c0:	   [38;5;231m/[38;5;231m-[38;5;231m-[0m a001                	j	800003c0 <__main+0xb0>

00000000800003c2 <bitcount_bitcount>:
    800003c2:	555557b7          	lui	a5,0x55555
    800003c6:	55578793          	addi	a5,a5,1365 # 55555555 <__heap_size+0x55535555>
    800003ca:	40155713          	srai	a4,a0,0x1
    800003ce:	8f7d                	and	a4,a4,a5
    800003d0:	8d7d                	and	a0,a0,a5
    800003d2:	972a                	add	a4,a4,a0
    800003d4:	333336b7          	lui	a3,0x33333
    800003d8:	33368693          	addi	a3,a3,819 # 33333333 <__heap_size+0x33313333>
    800003dc:	40275793          	srai	a5,a4,0x2
    800003e0:	8ff5                	and	a5,a5,a3
    800003e2:	8f75                	and	a4,a4,a3
    800003e4:	97ba                	add	a5,a5,a4
    800003e6:	0f0f16b7          	lui	a3,0xf0f1
    800003ea:	f0f68693          	addi	a3,a3,-241 # f0f0f0f <__heap_size+0xf0d0f0f>
    800003ee:	4047d713          	srai	a4,a5,0x4
    800003f2:	8f75                	and	a4,a4,a3
    800003f4:	8ff5                	and	a5,a5,a3
    800003f6:	973e                	add	a4,a4,a5
    800003f8:	00ff06b7          	lui	a3,0xff0
    800003fc:	0ff68693          	addi	a3,a3,255 # ff00ff <__heap_size+0xfd00ff>
    80000400:	40875793          	srai	a5,a4,0x8
    80000404:	8ff5                	and	a5,a5,a3
    80000406:	8f75                	and	a4,a4,a3
    80000408:	97ba                	add	a5,a5,a4
    8000040a:	4107d513          	srai	a0,a5,0x10
    8000040e:	17c2                	slli	a5,a5,0x30
    80000410:	93c1                	srli	a5,a5,0x30
    80000412:	953e                	add	a0,a0,a5
    80000414:	8082                	ret

0000000080000416 <bitcount_bit_count>:
    80000416:	    87aa                	mv	a5,a0
    80000418:	    4501                	li	a0,0
    8000041a:	[38;5;171m/[38;5;171m-[38;5;171m-[0m e391                	bnez	a5,8000041e <bitcount_bit_count+0x8>
    8000041c:	[38;5;171m|[0m   8082                	ret
    8000041e:	[38;5;171m>[38;5;171m-[38;5;171m>[0m fff78713          	addi	a4,a5,-1
    80000422:	[38;5;171m|[0m   8ff9                	and	a5,a5,a4
    80000424:	[38;5;171m|[0m   2505                	addiw	a0,a0,1
    80000426:	[38;5;171m\[38;5;171m-[38;5;171m-[0m ffe5                	bnez	a5,8000041e <bitcount_bit_count+0x8>
    80000428:	    8082                	ret

000000008000042a <bitcount_init3>:
    8000042a:	       716d                	addi	sp,sp,-272
    8000042c:	       c602                	sw	zero,12(sp)
    8000042e:	       00002797          	auipc	a5,0x2
    80000432:	       01278793          	addi	a5,a5,18 # 80002440 <__tbss_end+0x50>
    80000436:	       0818                	addi	a4,sp,16
    80000438:	       00002817          	auipc	a6,0x2
    8000043c:	       10880813          	addi	a6,a6,264 # 80002540 <__tbss_end+0x150>
    80000440:	   [38;5;145m/[38;5;145m-[38;5;145m>[0m 6388                	ld	a0,0(a5)
    80000442:	   [38;5;145m|[0m   678c                	ld	a1,8(a5)
    80000444:	   [38;5;145m|[0m   6b90                	ld	a2,16(a5)
    80000446:	   [38;5;145m|[0m   6f94                	ld	a3,24(a5)
    80000448:	   [38;5;145m|[0m   e308                	sd	a0,0(a4)
    8000044a:	   [38;5;145m|[0m   e70c                	sd	a1,8(a4)
    8000044c:	   [38;5;145m|[0m   eb10                	sd	a2,16(a4)
    8000044e:	   [38;5;145m|[0m   ef14                	sd	a3,24(a4)
    80000450:	   [38;5;145m|[0m   02078793          	addi	a5,a5,32
    80000454:	   [38;5;145m|[0m   02070713          	addi	a4,a4,32
    80000458:	   [38;5;145m\[38;5;145m-[38;5;145m-[0m ff0794e3          	bne	a5,a6,80000440 <bitcount_init3+0x16>
    8000045c:	       c602                	sw	zero,12(sp)
    8000045e:	       4732                	lw	a4,12(sp)
    80000460:	       0ff00793          	li	a5,255
    80000464:	[38;5;141m/-----[0m 02e7c663          	blt	a5,a4,80000490 <bitcount_init3+0x66>
    80000468:	[38;5;141m|[0m      89018593          	addi	a1,gp,-1904 # 80002950 <bitcount_bits>
    8000046c:	[38;5;141m|[0m      0ff00613          	li	a2,255
    80000470:	[38;5;141m|[0m  [38;5;156m/->[0m 46b2                	lw	a3,12(sp)
    80000472:	[38;5;141m|[0m  [38;5;156m|[0m   47b2                	lw	a5,12(sp)
    80000474:	[38;5;141m|[0m  [38;5;156m|[0m   4732                	lw	a4,12(sp)
    80000476:	[38;5;141m|[0m  [38;5;156m|[0m   11068693          	addi	a3,a3,272
    8000047a:	[38;5;141m|[0m  [38;5;156m|[0m   968a                	add	a3,a3,sp
    8000047c:	[38;5;141m|[0m  [38;5;156m|[0m   2705                	addiw	a4,a4,1
    8000047e:	[38;5;141m|[0m  [38;5;156m|[0m   f006c683          	lbu	a3,-256(a3)
    80000482:	[38;5;141m|[0m  [38;5;156m|[0m   c63a                	sw	a4,12(sp)
    80000484:	[38;5;141m|[0m  [38;5;156m|[0m   4732                	lw	a4,12(sp)
    80000486:	[38;5;141m|[0m  [38;5;156m|[0m   97ae                	add	a5,a5,a1
    80000488:	[38;5;141m|[0m  [38;5;156m|[0m   00d78023          	sb	a3,0(a5)
    8000048c:	[38;5;141m|[0m  [38;5;156m\--[0m fee652e3          	bge	a2,a4,80000470 <bitcount_init3+0x46>
    80000490:	[38;5;141m\---->[0m 6151                	addi	sp,sp,272
    80000492:	       8082                	ret

0000000080000494 <bitcount_ntbl_bitcount>:
    80000494:	00455793          	srli	a5,a0,0x4
    80000498:	89018693          	addi	a3,gp,-1904 # 80002950 <bitcount_bits>
    8000049c:	00f57593          	andi	a1,a0,15
    800004a0:	00855713          	srli	a4,a0,0x8
    800004a4:	8bbd                	andi	a5,a5,15
    800004a6:	95b6                	add	a1,a1,a3
    800004a8:	97b6                	add	a5,a5,a3
    800004aa:	00c55613          	srli	a2,a0,0xc
    800004ae:	8b3d                	andi	a4,a4,15
    800004b0:	0005ce03          	lbu	t3,0(a1)
    800004b4:	9736                	add	a4,a4,a3
    800004b6:	0007c783          	lbu	a5,0(a5)
    800004ba:	01055593          	srli	a1,a0,0x10
    800004be:	8a3d                	andi	a2,a2,15
    800004c0:	00074303          	lbu	t1,0(a4)
    800004c4:	9636                	add	a2,a2,a3
    800004c6:	01455713          	srli	a4,a0,0x14
    800004ca:	89bd                	andi	a1,a1,15
    800004cc:	00064883          	lbu	a7,0(a2)
    800004d0:	95b6                	add	a1,a1,a3
    800004d2:	01855613          	srli	a2,a0,0x18
    800004d6:	8b3d                	andi	a4,a4,15
    800004d8:	0005c803          	lbu	a6,0(a1)
    800004dc:	9736                	add	a4,a4,a3
    800004de:	01c787bb          	addw	a5,a5,t3
    800004e2:	8a3d                	andi	a2,a2,15
    800004e4:	00074583          	lbu	a1,0(a4)
    800004e8:	006787bb          	addw	a5,a5,t1
    800004ec:	9636                	add	a2,a2,a3
    800004ee:	01c5571b          	srliw	a4,a0,0x1c
    800004f2:	00064603          	lbu	a2,0(a2)
    800004f6:	011787bb          	addw	a5,a5,a7
    800004fa:	00e68533          	add	a0,a3,a4
    800004fe:	00054503          	lbu	a0,0(a0)
    80000502:	010787bb          	addw	a5,a5,a6
    80000506:	9fad                	addw	a5,a5,a1
    80000508:	9fb1                	addw	a5,a5,a2
    8000050a:	9d3d                	addw	a0,a0,a5
    8000050c:	8082                	ret

000000008000050e <bitcount_BW_btbl_bitcount>:
    8000050e:	00855693          	srli	a3,a0,0x8
    80000512:	89018793          	addi	a5,gp,-1904 # 80002950 <bitcount_bits>
    80000516:	0ff57713          	zext.b	a4,a0
    8000051a:	0ff6f693          	zext.b	a3,a3
    8000051e:	96be                	add	a3,a3,a5
    80000520:	0185561b          	srliw	a2,a0,0x18
    80000524:	973e                	add	a4,a4,a5
    80000526:	8141                	srli	a0,a0,0x10
    80000528:	0006c583          	lbu	a1,0(a3)
    8000052c:	00074703          	lbu	a4,0(a4)
    80000530:	00c786b3          	add	a3,a5,a2
    80000534:	0ff57513          	zext.b	a0,a0
    80000538:	0006c683          	lbu	a3,0(a3)
    8000053c:	97aa                	add	a5,a5,a0
    8000053e:	0007c503          	lbu	a0,0(a5)
    80000542:	00b707bb          	addw	a5,a4,a1
    80000546:	9fb5                	addw	a5,a5,a3
    80000548:	9d3d                	addw	a0,a0,a5
    8000054a:	8082                	ret

000000008000054c <bitcount_AR_btbl_bitcount>:
    8000054c:	00855693          	srli	a3,a0,0x8
    80000550:	89018793          	addi	a5,gp,-1904 # 80002950 <bitcount_bits>
    80000554:	0ff57613          	zext.b	a2,a0
    80000558:	01055713          	srli	a4,a0,0x10
    8000055c:	0ff6f693          	zext.b	a3,a3
    80000560:	963e                	add	a2,a2,a5
    80000562:	96be                	add	a3,a3,a5
    80000564:	0ff77713          	zext.b	a4,a4
    80000568:	00064603          	lbu	a2,0(a2)
    8000056c:	0006c683          	lbu	a3,0(a3)
    80000570:	973e                	add	a4,a4,a5
    80000572:	0185551b          	srliw	a0,a0,0x18
    80000576:	00074703          	lbu	a4,0(a4)
    8000057a:	97aa                	add	a5,a5,a0
    8000057c:	0007c503          	lbu	a0,0(a5)
    80000580:	00c687bb          	addw	a5,a3,a2
    80000584:	9fb9                	addw	a5,a5,a4
    80000586:	9d3d                	addw	a0,a0,a5
    80000588:	8082                	ret

000000008000058a <bitcount_bit_shifter>:
    8000058a:	             87aa                	mv	a5,a0
    8000058c:	[38;5;157m/[38;5;157m-[38;5;157m-[38;5;157m-[38;5;157m-[38;5;157m-[38;5;157m-[38;5;157m-[38;5;157m-[38;5;157m-[38;5;157m-[38;5;157m-[0m cd11                	beqz	a0,800005a8 <bitcount_bit_shifter+0x1e>
    8000058e:	[38;5;157m|[0m            04000713          	li	a4,64
    80000592:	[38;5;157m|[0m            4501                	li	a0,0
    80000594:	[38;5;157m|[0m        [38;5;229m/[38;5;229m-[38;5;229m-[0m a011                	j	80000598 <bitcount_bit_shifter+0xe>
    80000596:	[38;5;157m|[0m  [38;5;186m/--[38;5;151m/[38;5;151m-[38;5;151m-[38;5;229m|[38;5;151m-[38;5;186mX[0m cb01                	beqz	a4,800005a6 <bitcount_bit_shifter+0x1c>
    80000598:	[38;5;157m|[0m  [38;5;186m|[0m  [38;5;151m|[0m  [38;5;229m\[38;5;229m-[38;5;229m>[0m 0017f693          	andi	a3,a5,1
    8000059c:	[38;5;157m|[0m  [38;5;186m|[0m  [38;5;151m|[0m      8785                	srai	a5,a5,0x1
    8000059e:	[38;5;157m|[0m  [38;5;186m|[0m  [38;5;151m|[0m      377d                	addiw	a4,a4,-1
    800005a0:	[38;5;157m|[0m  [38;5;186m|[0m  [38;5;151m|[0m      9d35                	addw	a0,a0,a3
    800005a2:	[38;5;157m|[0m  [38;5;186m|[0m  [38;5;151m\[38;5;151m-[38;5;151m-[38;5;151m-[38;5;151m-[38;5;151m-[0m fbf5                	bnez	a5,80000596 <bitcount_bit_shifter+0xc>
    800005a4:	[38;5;157m|[0m  [38;5;186m|[0m         8082                	ret
    800005a6:	[38;5;157m|[0m  [38;5;186m\------->[0m 8082                	ret
    800005a8:	[38;5;157m\[38;5;157m-[38;5;157m-[38;5;157m-[38;5;157m-[38;5;157m-[38;5;157m-[38;5;157m-[38;5;157m-[38;5;157m-[38;5;157m-[38;5;157m>[0m 4501                	li	a0,0
    800005aa:	             8082                	ret

00000000800005ac <bitcount_return>:
    800005ac:	8381b503          	ld	a0,-1992(gp) # 800028f8 <bitcount_n>
    800005b0:	bb950513          	addi	a0,a0,-1095
    800005b4:	00a03533          	snez	a0,a0
    800005b8:	8082                	ret

00000000800005ba <bitcount_init>:
    800005ba:	4785                	li	a5,1
    800005bc:	1141                	addi	sp,sp,-16
    800005be:	84f1b823          	sd	a5,-1968(gp) # 80002910 <bitcount_randseed>
    800005c2:	47a9                	li	a5,10
    800005c4:	e406                	sd	ra,8(sp)
    800005c6:	82f1a823          	sw	a5,-2000(gp) # 800028f0 <bitcount_iterations>
    800005ca:	8201bc23          	sd	zero,-1992(gp) # 800028f8 <bitcount_n>
    800005ce:	e5dff0ef          	jal	ra,8000042a <bitcount_init3>
    800005d2:	60a2                	ld	ra,8(sp)
    800005d4:	0141                	addi	sp,sp,16
    800005d6:	a419                	j	800007dc <bitcount_init4>

00000000800005d8 <bitcount_random>:
    800005d8:	    85018693          	addi	a3,gp,-1968 # 80002910 <bitcount_randseed>
    800005dc:	    629c                	ld	a5,0(a3)
    800005de:	    677d                	lui	a4,0x1f
    800005e0:	    31d70713          	addi	a4,a4,797 # 1f31d <__stack_size+0x1731d>
    800005e4:	    02e7e533          	rem	a0,a5,a4
    800005e8:	    02e7c7b3          	div	a5,a5,a4
    800005ec:	    6711                	lui	a4,0x4
    800005ee:	    1a770713          	addi	a4,a4,423 # 41a7 <__stack_align+0x4197>
    800005f2:	    02e50533          	mul	a0,a0,a4
    800005f6:	    777d                	lui	a4,0xfffff
    800005f8:	    4ec70713          	addi	a4,a4,1260 # fffffffffffff4ec <__heap_end+0xffffffff7ffdc4ec>
    800005fc:	    02e787b3          	mul	a5,a5,a4
    80000600:	    953e                	add	a0,a0,a5
    80000602:	[38;5;226m/--[0m 00a04763          	bgtz	a0,80000610 <bitcount_random+0x38>
    80000606:	[38;5;226m|[0m   800007b7          	lui	a5,0x80000
    8000060a:	[38;5;226m|[0m   fff7c793          	not	a5,a5
    8000060e:	[38;5;226m|[0m   953e                	add	a0,a0,a5
    80000610:	[38;5;226m\->[0m e288                	sd	a0,0(a3)
    80000612:	    8082                	ret

0000000080000614 <bitcount_main>:
    80000614:	                      7119                	addi	sp,sp,-128
    80000616:	                      f862                	sd	s8,48(sp)
    80000618:	                      7c7d                	lui	s8,0xfffff
    8000061a:	                      4ecc0793          	addi	a5,s8,1260 # fffffffffffff4ec <__heap_end+0xffffffff7ffdc4ec>
    8000061e:	                      e03e                	sd	a5,0(sp)
    80000620:	                      800007b7          	lui	a5,0x80000
    80000624:	                      e0da                	sd	s6,64(sp)
    80000626:	                      f466                	sd	s9,40(sp)
    80000628:	                      6b7d                	lui	s6,0x1f
    8000062a:	                      6c91                	lui	s9,0x4
    8000062c:	                      fff7c793          	not	a5,a5
    80000630:	                      f4a6                	sd	s1,104(sp)
    80000632:	                      f0ca                	sd	s2,96(sp)
    80000634:	                      ecce                	sd	s3,88(sp)
    80000636:	                      e4d6                	sd	s5,72(sp)
    80000638:	                      fc5e                	sd	s7,56(sp)
    8000063a:	                      f06a                	sd	s10,32(sp)
    8000063c:	                      fc86                	sd	ra,120(sp)
    8000063e:	                      f8a2                	sd	s0,112(sp)
    80000640:	                      e8d2                	sd	s4,80(sp)
    80000642:	                      ec6e                	sd	s11,24(sp)
    80000644:	                      4481                	li	s1,0
    80000646:	                      85018b93          	addi	s7,gp,-1968 # 80002910 <bitcount_randseed>
    8000064a:	                      84018d13          	addi	s10,gp,-1984 # 80002900 <bitcount_seed>
    8000064e:	                      83018913          	addi	s2,gp,-2000 # 800028f0 <bitcount_iterations>
    80000652:	                      31db0b13          	addi	s6,s6,797 # 1f31d <__stack_size+0x1731d>
    80000656:	                      1a7c8c93          	addi	s9,s9,423 # 41a7 <__stack_align+0x4197>
    8000065a:	                      e43e                	sd	a5,8(sp)
    8000065c:	                      84818a93          	addi	s5,gp,-1976 # 80002908 <bitcount_res>
    80000660:	                      00002997          	auipc	s3,0x2
    80000664:	                      ee098993          	addi	s3,s3,-288 # 80002540 <__tbss_end+0x150>
    80000668:	            [38;5;209m/------->[0m 000bb783          	ld	a5,0(s7)
    8000066c:	            [38;5;209m|[0m         6702                	ld	a4,0(sp)
    8000066e:	            [38;5;209m|[0m         0367e533          	rem	a0,a5,s6
    80000672:	            [38;5;209m|[0m         0367c7b3          	div	a5,a5,s6
    80000676:	            [38;5;209m|[0m         03950533          	mul	a0,a0,s9
    8000067a:	            [38;5;209m|[0m         02e787b3          	mul	a5,a5,a4
    8000067e:	            [38;5;209m|[0m         953e                	add	a0,a0,a5
    80000680:	            [38;5;209m|[0m     [38;5;217m/--[0m 00a04463          	bgtz	a0,80000688 <bitcount_main+0x74>
    80000684:	            [38;5;209m|[0m     [38;5;217m|[0m   67a2                	ld	a5,8(sp)
    80000686:	            [38;5;209m|[0m     [38;5;217m|[0m   953e                	add	a0,a0,a5
    80000688:	            [38;5;209m|[0m     [38;5;217m\->[0m 00092783          	lw	a5,0(s2)
    8000068c:	            [38;5;209m|[0m         00249413          	slli	s0,s1,0x2
    80000690:	            [38;5;209m|[0m         00abb023          	sd	a0,0(s7)
    80000694:	            [38;5;209m|[0m         00ad3023          	sd	a0,0(s10)
    80000698:	            [38;5;209m|[0m         4d81                	li	s11,0
    8000069a:	            [38;5;209m|[0m         83818c13          	addi	s8,gp,-1992 # 800028f8 <bitcount_n>
    8000069e:	            [38;5;209m|[0m         4a1d                	li	s4,7
    800006a0:	            [38;5;209m|[0m         944e                	add	s0,s0,s3
    800006a2:	            [38;5;209m|[0m  [38;5;156m/[38;5;156m-[38;5;156m-[38;5;156m-[38;5;156m-[38;5;156m-[0m cb95                	beqz	a5,800006d6 <bitcount_main+0xc2>
    800006a4:	[38;5;158m/-----------[38;5;209m|[38;5;158m--[38;5;156m|[38;5;158m--[38;5;189m/[38;5;189m-[38;5;158mX[0m 0e9a6363          	bltu	s4,s1,8000078a <bitcount_main+0x176>
    800006a8:	[38;5;158m|[0m           [38;5;209m|[0m  [38;5;156m|[0m  [38;5;189m|[0m   401c                	lw	a5,0(s0)
    800006aa:	[38;5;158m|[0m           [38;5;209m|[0m  [38;5;156m|[0m  [38;5;189m|[0m   97ce                	add	a5,a5,s3
    800006ac:	[38;5;158m|[0m           [38;5;209m|[0m  [38;5;156m|[0m  [38;5;189m|[0m   8782                	jr	a5
    800006ae:	[38;5;158m|[0m           [38;5;209m|[0m  [38;5;156m|[0m  [38;5;189m|[0m   e9fff0ef          	jal	ra,8000054c <bitcount_AR_btbl_bitcount>
    800006b2:	[38;5;158m|[0m           [38;5;209m|[0m  [38;5;156m|[0m  [38;5;189m|[0m   87aa                	mv	a5,a0
    800006b4:	[38;5;158m|[0m           [38;5;209m|[0m  [38;5;156m|[0m  [38;5;189m|[0m   000d3503          	ld	a0,0(s10)
    800006b8:	[38;5;158m|[0m           [38;5;209m|[0m  [38;5;156m|[0m  [38;5;189m|[0m   00faa023          	sw	a5,0(s5)
    800006bc:	[38;5;158m|[0m  [38;5;151m/--------[38;5;209m|[38;5;151m--[38;5;156m|[38;5;151m--[38;5;189m|[38;5;151m->[0m 000c3603          	ld	a2,0(s8)
    800006c0:	[38;5;158m|[0m  [38;5;151m|[0m        [38;5;209m|[0m  [38;5;156m|[0m  [38;5;189m|[0m   00092583          	lw	a1,0(s2)
    800006c4:	[38;5;158m|[0m  [38;5;151m|[0m        [38;5;209m|[0m  [38;5;156m|[0m  [38;5;189m|[0m   0535                	addi	a0,a0,13
    800006c6:	[38;5;158m|[0m  [38;5;151m|[0m        [38;5;209m|[0m  [38;5;156m|[0m  [38;5;189m|[0m   97b2                	add	a5,a5,a2
    800006c8:	[38;5;158m|[0m  [38;5;151m|[0m        [38;5;209m|[0m  [38;5;156m|[0m  [38;5;189m|[0m   00fc3023          	sd	a5,0(s8)
    800006cc:	[38;5;158m|[0m  [38;5;151m|[0m        [38;5;209m|[0m  [38;5;156m|[0m  [38;5;189m|[0m   2d85                	addiw	s11,s11,1
    800006ce:	[38;5;158m|[0m  [38;5;151m|[0m        [38;5;209m|[0m  [38;5;156m|[0m  [38;5;189m|[0m   00ad3023          	sd	a0,0(s10)
    800006d2:	[38;5;158m|[0m  [38;5;151m|[0m        [38;5;209m|[0m  [38;5;156m|[0m  [38;5;189m\[38;5;189m-[38;5;189m-[0m fcbde9e3          	bltu	s11,a1,800006a4 <bitcount_main+0x90>
    800006d6:	[38;5;158m|[0m  [38;5;151m|[0m        [38;5;209m|[0m  [38;5;156m\[38;5;156m-[38;5;156m-[38;5;156m-[38;5;156m-[38;5;156m>[0m 2485                	addiw	s1,s1,1
    800006d8:	[38;5;158m|[0m  [38;5;151m|[0m        [38;5;209m|[0m         47a1                	li	a5,8
    800006da:	[38;5;158m|[0m  [38;5;151m|[0m        [38;5;209m\--------[0m f8f497e3          	bne	s1,a5,80000668 <bitcount_main+0x54>
    800006de:	[38;5;158m|[0m  [38;5;151m|[0m              [38;5;231m/[38;5;231m-[38;5;231m>[0m 70e6                	ld	ra,120(sp)
    800006e0:	[38;5;158m|[0m  [38;5;151m|[0m              [38;5;231m|[0m   7446                	ld	s0,112(sp)
    800006e2:	[38;5;158m|[0m  [38;5;151m|[0m              [38;5;231m|[0m   74a6                	ld	s1,104(sp)
    800006e4:	[38;5;158m|[0m  [38;5;151m|[0m              [38;5;231m|[0m   7906                	ld	s2,96(sp)
    800006e6:	[38;5;158m|[0m  [38;5;151m|[0m              [38;5;231m|[0m   69e6                	ld	s3,88(sp)
    800006e8:	[38;5;158m|[0m  [38;5;151m|[0m              [38;5;231m|[0m   6a46                	ld	s4,80(sp)
    800006ea:	[38;5;158m|[0m  [38;5;151m|[0m              [38;5;231m|[0m   6aa6                	ld	s5,72(sp)
    800006ec:	[38;5;158m|[0m  [38;5;151m|[0m              [38;5;231m|[0m   6b06                	ld	s6,64(sp)
    800006ee:	[38;5;158m|[0m  [38;5;151m|[0m              [38;5;231m|[0m   7be2                	ld	s7,56(sp)
    800006f0:	[38;5;158m|[0m  [38;5;151m|[0m              [38;5;231m|[0m   7c42                	ld	s8,48(sp)
    800006f2:	[38;5;158m|[0m  [38;5;151m|[0m              [38;5;231m|[0m   7ca2                	ld	s9,40(sp)
    800006f4:	[38;5;158m|[0m  [38;5;151m|[0m              [38;5;231m|[0m   7d02                	ld	s10,32(sp)
    800006f6:	[38;5;158m|[0m  [38;5;151m|[0m              [38;5;231m|[0m   6de2                	ld	s11,24(sp)
    800006f8:	[38;5;158m|[0m  [38;5;151m|[0m              [38;5;231m|[0m   6109                	addi	sp,sp,128
    800006fa:	[38;5;158m|[0m  [38;5;151m|[0m              [38;5;231m|[0m   8082                	ret
    800006fc:	[38;5;158m|[0m  [38;5;151m|[0m              [38;5;231m|[0m   e13ff0ef          	jal	ra,8000050e <bitcount_BW_btbl_bitcount>
    80000700:	[38;5;158m|[0m  [38;5;151m|[0m              [38;5;231m|[0m   87aa                	mv	a5,a0
    80000702:	[38;5;158m|[0m  [38;5;151m|[0m              [38;5;231m|[0m   00faa023          	sw	a5,0(s5)
    80000706:	[38;5;158m|[0m  [38;5;151m|[0m              [38;5;231m|[0m   000d3503          	ld	a0,0(s10)
    8000070a:	[38;5;158m|[0m  [38;5;151m+--------------[38;5;231m|[38;5;151m--[0m bf4d                	j	800006bc <bitcount_main+0xa8>
    8000070c:	[38;5;158m|[0m  [38;5;151m|[0m              [38;5;231m|[0m   d89ff0ef          	jal	ra,80000494 <bitcount_ntbl_bitcount>
    80000710:	[38;5;158m|[0m  [38;5;151m|[0m              [38;5;231m|[0m   87aa                	mv	a5,a0
    80000712:	[38;5;158m|[0m  [38;5;151m|[0m              [38;5;231m|[0m   00faa023          	sw	a5,0(s5)
    80000716:	[38;5;158m|[0m  [38;5;151m|[0m              [38;5;231m|[0m   000d3503          	ld	a0,0(s10)
    8000071a:	[38;5;158m|[0m  [38;5;151m+--------------[38;5;231m|[38;5;151m--[0m b74d                	j	800006bc <bitcount_main+0xa8>
    8000071c:	[38;5;158m|[0m  [38;5;151m|[0m              [38;5;231m|[0m   15a000ef          	jal	ra,80000876 <bitcount_btbl_bitcnt>
    80000720:	[38;5;158m|[0m  [38;5;151m|[0m              [38;5;231m|[0m   87aa                	mv	a5,a0
    80000722:	[38;5;158m|[0m  [38;5;151m|[0m              [38;5;231m|[0m   00faa023          	sw	a5,0(s5)
    80000726:	[38;5;158m|[0m  [38;5;151m|[0m              [38;5;231m|[0m   000d3503          	ld	a0,0(s10)
    8000072a:	[38;5;158m|[0m  [38;5;151m+--------------[38;5;231m|[38;5;151m--[0m bf49                	j	800006bc <bitcount_main+0xa8>
    8000072c:	[38;5;158m|[0m  [38;5;151m|[0m              [38;5;231m|[0m   11a000ef          	jal	ra,80000846 <bitcount_ntbl_bitcnt>
    80000730:	[38;5;158m|[0m  [38;5;151m|[0m              [38;5;231m|[0m   87aa                	mv	a5,a0
    80000732:	[38;5;158m|[0m  [38;5;151m|[0m              [38;5;231m|[0m   00faa023          	sw	a5,0(s5)
    80000736:	[38;5;158m|[0m  [38;5;151m|[0m              [38;5;231m|[0m   000d3503          	ld	a0,0(s10)
    8000073a:	[38;5;158m|[0m  [38;5;151m+--------------[38;5;231m|[38;5;151m--[0m b749                	j	800006bc <bitcount_main+0xa8>
    8000073c:	[38;5;158m|[0m  [38;5;151m|[0m              [38;5;231m|[0m   c87ff0ef          	jal	ra,800003c2 <bitcount_bitcount>
    80000740:	[38;5;158m|[0m  [38;5;151m|[0m              [38;5;231m|[0m   87aa                	mv	a5,a0
    80000742:	[38;5;158m|[0m  [38;5;151m|[0m              [38;5;231m|[0m   00faa023          	sw	a5,0(s5)
    80000746:	[38;5;158m|[0m  [38;5;151m|[0m              [38;5;231m|[0m   000d3503          	ld	a0,0(s10)
    8000074a:	[38;5;158m|[0m  [38;5;151m+--------------[38;5;231m|[38;5;151m--[0m bf8d                	j	800006bc <bitcount_main+0xa8>
    8000074c:	[38;5;158m|[0m  [38;5;151m|[0m     [38;5;201m/[38;5;201m-[38;5;201m-[38;5;201m-[38;5;201m-[38;5;201m-[38;5;201m-[38;5;201m-[38;5;201m-[38;5;231m|[38;5;201m-[38;5;201m>[0m 882e                	mv	a6,a1
    8000074e:	[38;5;158m|[0m  [38;5;151m|[0m  [38;5;195m/[38;5;195m-[38;5;195m-[38;5;201m|[38;5;195m-[38;5;195m-[38;5;195m-[38;5;195m-[38;5;195m-[38;5;195m-[38;5;195m-[38;5;195m-[38;5;231m|[38;5;195m-[38;5;195m>[0m 000c3783          	ld	a5,0(s8)
    80000752:	[38;5;158m|[0m  [38;5;151m|[0m  [38;5;195m|[0m  [38;5;201m|[0m        [38;5;231m|[0m   00092603          	lw	a2,0(s2)
    80000756:	[38;5;158m|[0m  [38;5;151m|[0m  [38;5;195m|[0m  [38;5;201m|[0m        [38;5;231m|[0m   0535                	addi	a0,a0,13
    80000758:	[38;5;158m|[0m  [38;5;151m|[0m  [38;5;195m|[0m  [38;5;201m|[0m        [38;5;231m|[0m   97c2                	add	a5,a5,a6
    8000075a:	[38;5;158m|[0m  [38;5;151m|[0m  [38;5;195m|[0m  [38;5;201m|[0m        [38;5;231m|[0m   00baa023          	sw	a1,0(s5)
    8000075e:	[38;5;158m|[0m  [38;5;151m|[0m  [38;5;195m|[0m  [38;5;201m|[0m        [38;5;231m|[0m   00fc3023          	sd	a5,0(s8)
    80000762:	[38;5;158m|[0m  [38;5;151m|[0m  [38;5;195m|[0m  [38;5;201m|[0m        [38;5;231m|[0m   2d85                	addiw	s11,s11,1
    80000764:	[38;5;158m|[0m  [38;5;151m|[0m  [38;5;195m|[0m  [38;5;201m|[0m        [38;5;231m|[0m   00ad3023          	sd	a0,0(s10)
    80000768:	[38;5;158m|[0m  [38;5;151m|[0m  [38;5;195m|[0m  [38;5;201m|[0m        [38;5;231m\[38;5;231m-[38;5;231m-[0m f6cdfbe3          	bgeu	s11,a2,800006de <bitcount_main+0xca>
    8000076c:	[38;5;158m|[0m  [38;5;151m|[0m  [38;5;195m|[0m  [38;5;201m|[0m            87aa                	mv	a5,a0
    8000076e:	[38;5;158m|[0m  [38;5;151m|[0m  [38;5;195m|[0m  [38;5;201m|[0m  [38;5;211m/[38;5;211m-[38;5;211m-[38;5;211m-[38;5;211m-[38;5;211m-[38;5;211m-[38;5;211m-[38;5;211m-[0m c905                	beqz	a0,8000079e <bitcount_main+0x18a>
    80000770:	[38;5;158m|[0m  [38;5;151m|[0m  [38;5;195m|[0m  [38;5;201m|[0m  [38;5;211m|[0m         04000613          	li	a2,64
    80000774:	[38;5;158m|[0m  [38;5;151m|[0m  [38;5;195m|[0m  [38;5;201m|[0m  [38;5;211m|[0m         4581                	li	a1,0
    80000776:	[38;5;158m|[0m  [38;5;151m|[0m  [38;5;195m|[0m  [38;5;201m|[0m  [38;5;211m|[0m     [38;5;172m/[38;5;172m-[38;5;172m-[0m a019                	j	8000077c <bitcount_main+0x168>
    80000778:	[38;5;158m|[0m  [38;5;151m|[0m  [38;5;195m|[0m  [38;5;201m|[0m  [38;5;211m|[0m  [38;5;164m/--[38;5;172m|[38;5;164m->[0m 367d                	addiw	a2,a2,-1
    8000077a:	[38;5;158m|[0m  [38;5;151m|[0m  [38;5;195m|[0m  [38;5;201m+[38;5;201m-[38;5;201m-[38;5;211m|[38;5;201m-[38;5;201m-[38;5;164m|[38;5;201m-[38;5;201m-[38;5;172m|[38;5;201m-[38;5;201m-[0m da69                	beqz	a2,8000074c <bitcount_main+0x138>
    8000077c:	[38;5;158m|[0m  [38;5;151m|[0m  [38;5;195m|[0m  [38;5;201m|[0m  [38;5;211m|[0m  [38;5;164m|[0m  [38;5;172m\[38;5;172m-[38;5;172m>[0m 0017f813          	andi	a6,a5,1
    80000780:	[38;5;158m|[0m  [38;5;151m|[0m  [38;5;195m|[0m  [38;5;201m|[0m  [38;5;211m|[0m  [38;5;164m|[0m      8785                	srai	a5,a5,0x1
    80000782:	[38;5;158m|[0m  [38;5;151m|[0m  [38;5;195m|[0m  [38;5;201m|[0m  [38;5;211m|[0m  [38;5;164m|[0m      00b805bb          	addw	a1,a6,a1
    80000786:	[38;5;158m|[0m  [38;5;151m|[0m  [38;5;195m|[0m  [38;5;201m|[0m  [38;5;211m|[0m  [38;5;164m\-----[0m fbed                	bnez	a5,80000778 <bitcount_main+0x164>
    80000788:	[38;5;158m|[0m  [38;5;151m|[0m  [38;5;195m|[0m  [38;5;201m\[38;5;201m-[38;5;201m-[38;5;211m|[38;5;201m-[38;5;201m-[38;5;201m-[38;5;201m-[38;5;201m-[38;5;201m-[38;5;201m-[38;5;201m-[0m b7d1                	j	8000074c <bitcount_main+0x138>
    8000078a:	[38;5;158m\--[38;5;151m|[38;5;158m--[38;5;195m|[38;5;158m-----[38;5;211m|[38;5;158m------->[0m 000d3503          	ld	a0,0(s10)
    8000078e:	   [38;5;151m|[0m  [38;5;195m|[0m     [38;5;211m|[0m         c89ff0ef          	jal	ra,80000416 <bitcount_bit_count>
    80000792:	   [38;5;151m|[0m  [38;5;195m|[0m     [38;5;211m|[0m         87aa                	mv	a5,a0
    80000794:	   [38;5;151m|[0m  [38;5;195m|[0m     [38;5;211m|[0m         00faa023          	sw	a5,0(s5)
    80000798:	   [38;5;151m|[0m  [38;5;195m|[0m     [38;5;211m|[0m         000d3503          	ld	a0,0(s10)
    8000079c:	   [38;5;151m\--[38;5;195m|[38;5;151m-----[38;5;211m|[38;5;151m--------[0m b705                	j	800006bc <bitcount_main+0xa8>
    8000079e:	      [38;5;195m|[0m     [38;5;211m\[38;5;211m-[38;5;211m-[38;5;211m-[38;5;211m-[38;5;211m-[38;5;211m-[38;5;211m-[38;5;211m>[0m 4801                	li	a6,0
    800007a0:	      [38;5;195m|[0m               4581                	li	a1,0
    800007a2:	      [38;5;195m\[38;5;195m-[38;5;195m-[38;5;195m-[38;5;195m-[38;5;195m-[38;5;195m-[38;5;195m-[38;5;195m-[38;5;195m-[38;5;195m-[38;5;195m-[38;5;195m-[38;5;195m-[38;5;195m-[0m b775                	j	8000074e <bitcount_main+0x13a>

00000000800007a4 <task_0>:
    800007a4:	1141                	addi	sp,sp,-16
    800007a6:	4785                	li	a5,1
    800007a8:	e406                	sd	ra,8(sp)
    800007aa:	e022                	sd	s0,0(sp)
    800007ac:	84f1b823          	sd	a5,-1968(gp) # 80002910 <bitcount_randseed>
    800007b0:	83818413          	addi	s0,gp,-1992 # 800028f8 <bitcount_n>
    800007b4:	47a9                	li	a5,10
    800007b6:	82f1a823          	sw	a5,-2000(gp) # 800028f0 <bitcount_iterations>
    800007ba:	00043023          	sd	zero,0(s0)
    800007be:	c6dff0ef          	jal	ra,8000042a <bitcount_init3>
    800007c2:	01a000ef          	jal	ra,800007dc <bitcount_init4>
    800007c6:	e4fff0ef          	jal	ra,80000614 <bitcount_main>
    800007ca:	6008                	ld	a0,0(s0)
    800007cc:	60a2                	ld	ra,8(sp)
    800007ce:	6402                	ld	s0,0(sp)
    800007d0:	bb950513          	addi	a0,a0,-1095
    800007d4:	00a03533          	snez	a0,a0
    800007d8:	0141                	addi	sp,sp,16
    800007da:	8082                	ret

00000000800007dc <bitcount_init4>:
    800007dc:	       716d                	addi	sp,sp,-272
    800007de:	       c602                	sw	zero,12(sp)
    800007e0:	       00002797          	auipc	a5,0x2
    800007e4:	       d8078793          	addi	a5,a5,-640 # 80002560 <__tbss_end+0x170>
    800007e8:	       0818                	addi	a4,sp,16
    800007ea:	       00002817          	auipc	a6,0x2
    800007ee:	       e7680813          	addi	a6,a6,-394 # 80002660 <__sf_fake_stderr>
    800007f2:	   [38;5;135m/[38;5;135m-[38;5;135m>[0m 6388                	ld	a0,0(a5)
    800007f4:	   [38;5;135m|[0m   678c                	ld	a1,8(a5)
    800007f6:	   [38;5;135m|[0m   6b90                	ld	a2,16(a5)
    800007f8:	   [38;5;135m|[0m   6f94                	ld	a3,24(a5)
    800007fa:	   [38;5;135m|[0m   e308                	sd	a0,0(a4)
    800007fc:	   [38;5;135m|[0m   e70c                	sd	a1,8(a4)
    800007fe:	   [38;5;135m|[0m   eb10                	sd	a2,16(a4)
    80000800:	   [38;5;135m|[0m   ef14                	sd	a3,24(a4)
    80000802:	   [38;5;135m|[0m   02078793          	addi	a5,a5,32
    80000806:	   [38;5;135m|[0m   02070713          	addi	a4,a4,32
    8000080a:	   [38;5;135m\[38;5;135m-[38;5;135m-[0m ff0794e3          	bne	a5,a6,800007f2 <bitcount_init4+0x16>
    8000080e:	       c602                	sw	zero,12(sp)
    80000810:	       4732                	lw	a4,12(sp)
    80000812:	       0ff00793          	li	a5,255
    80000816:	[38;5;127m/-----[0m 02e7c663          	blt	a5,a4,80000842 <bitcount_init4+0x66>
    8000081a:	[38;5;127m|[0m      99018593          	addi	a1,gp,-1648 # 80002a50 <bitcount_bits>
    8000081e:	[38;5;127m|[0m      0ff00613          	li	a2,255
    80000822:	[38;5;127m|[0m  [38;5;169m/[38;5;169m-[38;5;169m>[0m 46b2                	lw	a3,12(sp)
    80000824:	[38;5;127m|[0m  [38;5;169m|[0m   47b2                	lw	a5,12(sp)
    80000826:	[38;5;127m|[0m  [38;5;169m|[0m   4732                	lw	a4,12(sp)
    80000828:	[38;5;127m|[0m  [38;5;169m|[0m   11068693          	addi	a3,a3,272
    8000082c:	[38;5;127m|[0m  [38;5;169m|[0m   968a                	add	a3,a3,sp
    8000082e:	[38;5;127m|[0m  [38;5;169m|[0m   2705                	addiw	a4,a4,1
    80000830:	[38;5;127m|[0m  [38;5;169m|[0m   f006c683          	lbu	a3,-256(a3)
    80000834:	[38;5;127m|[0m  [38;5;169m|[0m   c63a                	sw	a4,12(sp)
    80000836:	[38;5;127m|[0m  [38;5;169m|[0m   4732                	lw	a4,12(sp)
    80000838:	[38;5;127m|[0m  [38;5;169m|[0m   97ae                	add	a5,a5,a1
    8000083a:	[38;5;127m|[0m  [38;5;169m|[0m   00d78023          	sb	a3,0(a5)
    8000083e:	[38;5;127m|[0m  [38;5;169m\[38;5;169m-[38;5;169m-[0m fee652e3          	bge	a2,a4,80000822 <bitcount_init4+0x46>
    80000842:	[38;5;127m\---->[0m 6151                	addi	sp,sp,272
    80000844:	       8082                	ret

0000000080000846 <bitcount_ntbl_bitcnt>:
    80000846:	       00f57713          	andi	a4,a0,15
    8000084a:	       99018593          	addi	a1,gp,-1648 # 80002a50 <bitcount_bits>
    8000084e:	       972e                	add	a4,a4,a1
    80000850:	       00455793          	srli	a5,a0,0x4
    80000854:	       00074503          	lbu	a0,0(a4)
    80000858:	[38;5;165m/[38;5;165m-[38;5;165m-[38;5;165m-[38;5;165m-[38;5;165m-[0m cf91                	beqz	a5,80000874 <bitcount_ntbl_bitcnt+0x2e>
    8000085a:	[38;5;165m|[0m      4601                	li	a2,0
    8000085c:	[38;5;165m|[0m  [38;5;127m/->[0m 00f7f713          	andi	a4,a5,15
    80000860:	[38;5;165m|[0m  [38;5;127m|[0m   972e                	add	a4,a4,a1
    80000862:	[38;5;165m|[0m  [38;5;127m|[0m   00074683          	lbu	a3,0(a4)
    80000866:	[38;5;165m|[0m  [38;5;127m|[0m   8391                	srli	a5,a5,0x4
    80000868:	[38;5;165m|[0m  [38;5;127m|[0m   9e29                	addw	a2,a2,a0
    8000086a:	[38;5;165m|[0m  [38;5;127m|[0m   0006851b          	sext.w	a0,a3
    8000086e:	[38;5;165m|[0m  [38;5;127m\--[0m f7fd                	bnez	a5,8000085c <bitcount_ntbl_bitcnt+0x16>
    80000870:	[38;5;165m|[0m      00c6853b          	addw	a0,a3,a2
    80000874:	[38;5;165m\[38;5;165m-[38;5;165m-[38;5;165m-[38;5;165m-[38;5;165m>[0m 8082                	ret

0000000080000876 <bitcount_btbl_bitcnt>:
    80000876:	       0ff57713          	zext.b	a4,a0
    8000087a:	       99018593          	addi	a1,gp,-1648 # 80002a50 <bitcount_bits>
    8000087e:	       972e                	add	a4,a4,a1
    80000880:	       00855793          	srli	a5,a0,0x8
    80000884:	       00074503          	lbu	a0,0(a4)
    80000888:	[38;5;149m/[38;5;149m-[38;5;149m-[38;5;149m-[38;5;149m-[38;5;149m-[0m cf91                	beqz	a5,800008a4 <bitcount_btbl_bitcnt+0x2e>
    8000088a:	[38;5;149m|[0m      4601                	li	a2,0
    8000088c:	[38;5;149m|[0m  [38;5;162m/->[0m 0ff7f713          	zext.b	a4,a5
    80000890:	[38;5;149m|[0m  [38;5;162m|[0m   972e                	add	a4,a4,a1
    80000892:	[38;5;149m|[0m  [38;5;162m|[0m   00074703          	lbu	a4,0(a4)
    80000896:	[38;5;149m|[0m  [38;5;162m|[0m   83a1                	srli	a5,a5,0x8
    80000898:	[38;5;149m|[0m  [38;5;162m|[0m   9e29                	addw	a2,a2,a0
    8000089a:	[38;5;149m|[0m  [38;5;162m|[0m   0007051b          	sext.w	a0,a4
    8000089e:	[38;5;149m|[0m  [38;5;162m\--[0m f7fd                	bnez	a5,8000088c <bitcount_btbl_bitcnt+0x16>
    800008a0:	[38;5;149m|[0m      00e6053b          	addw	a0,a2,a4
    800008a4:	[38;5;149m\[38;5;149m-[38;5;149m-[38;5;149m-[38;5;149m-[38;5;149m>[0m 8082                	ret

00000000800008a6 <fac_init>:
    800008a6:	8401ae23          	sw	zero,-1956(gp) # 8000291c <fac_s>
    800008aa:	4795                	li	a5,5
    800008ac:	84f1ac23          	sw	a5,-1960(gp) # 80002918 <fac_n>
    800008b0:	8082                	ret

00000000800008b2 <fac_return>:
    800008b2:	85c1a503          	lw	a0,-1956(gp) # 8000291c <fac_s>
    800008b6:	f665051b          	addiw	a0,a0,-154
    800008ba:	8082                	ret

00000000800008bc <fac_fac>:
    800008bc:	       87aa                	mv	a5,a0
    800008be:	       4505                	li	a0,1
    800008c0:	[38;5;207m/[38;5;207m-[38;5;207m-[38;5;207m-[38;5;207m-[38;5;207m-[0m c791                	beqz	a5,800008cc <fac_fac+0x10>
    800008c2:	[38;5;207m|[0m  [38;5;144m/->[0m 873e                	mv	a4,a5
    800008c4:	[38;5;207m|[0m  [38;5;144m|[0m   37fd                	addiw	a5,a5,-1
    800008c6:	[38;5;207m|[0m  [38;5;144m|[0m   02a7053b          	mulw	a0,a4,a0
    800008ca:	[38;5;207m|[0m  [38;5;144m\--[0m ffe5                	bnez	a5,800008c2 <fac_fac+0x6>
    800008cc:	[38;5;207m\[38;5;207m-[38;5;207m-[38;5;207m-[38;5;207m-[38;5;207m>[0m 8082                	ret

00000000800008ce <fac_main>:
    800008ce:	             8581a783          	lw	a5,-1960(gp) # 80002918 <fac_n>
    800008d2:	             85818513          	addi	a0,gp,-1960 # 80002918 <fac_n>
    800008d6:	[38;5;127m/-----------[0m 0207cc63          	bltz	a5,8000090e <fac_main+0x40>
    800008da:	[38;5;127m|[0m            85c18813          	addi	a6,gp,-1956 # 8000291c <fac_s>
    800008de:	[38;5;127m|[0m            00082583          	lw	a1,0(a6)
    800008e2:	[38;5;127m|[0m            411c                	lw	a5,0(a0)
    800008e4:	[38;5;127m|[0m            4601                	li	a2,0
    800008e6:	[38;5;127m|[0m            4705                	li	a4,1
    800008e8:	[38;5;127m|[0m            2605                	addiw	a2,a2,1
    800008ea:	[38;5;127m|[0m            9db9                	addw	a1,a1,a4
    800008ec:	[38;5;127m|[0m  [38;5;136m/[38;5;136m-[38;5;136m-[38;5;136m-[38;5;136m-[38;5;136m-[38;5;136m-[38;5;136m-[38;5;136m-[0m 00c7ce63          	blt	a5,a2,80000908 <fac_main+0x3a>
    800008f0:	[38;5;127m|[0m  [38;5;136m|[0m  [38;5;126m/---->[0m 87b2                	mv	a5,a2
    800008f2:	[38;5;127m|[0m  [38;5;136m|[0m  [38;5;126m|[0m      4705                	li	a4,1
    800008f4:	[38;5;127m|[0m  [38;5;136m|[0m  [38;5;126m|[0m  [38;5;227m/->[0m 86be                	mv	a3,a5
    800008f6:	[38;5;127m|[0m  [38;5;136m|[0m  [38;5;126m|[0m  [38;5;227m|[0m   37fd                	addiw	a5,a5,-1
    800008f8:	[38;5;127m|[0m  [38;5;136m|[0m  [38;5;126m|[0m  [38;5;227m|[0m   02e6873b          	mulw	a4,a3,a4
    800008fc:	[38;5;127m|[0m  [38;5;136m|[0m  [38;5;126m|[0m  [38;5;227m\--[0m ffe5                	bnez	a5,800008f4 <fac_main+0x26>
    800008fe:	[38;5;127m|[0m  [38;5;136m|[0m  [38;5;126m|[0m      411c                	lw	a5,0(a0)
    80000900:	[38;5;127m|[0m  [38;5;136m|[0m  [38;5;126m|[0m      2605                	addiw	a2,a2,1
    80000902:	[38;5;127m|[0m  [38;5;136m|[0m  [38;5;126m|[0m      9db9                	addw	a1,a1,a4
    80000904:	[38;5;127m|[0m  [38;5;136m|[0m  [38;5;126m\-----[0m fec7d6e3          	bge	a5,a2,800008f0 <fac_main+0x22>
    80000908:	[38;5;127m|[0m  [38;5;136m\[38;5;136m-[38;5;136m-[38;5;136m-[38;5;136m-[38;5;136m-[38;5;136m-[38;5;136m-[38;5;136m>[0m 00b82023          	sw	a1,0(a6)
    8000090c:	[38;5;127m|[0m            8082                	ret
    8000090e:	[38;5;127m\---------->[0m 8082                	ret

0000000080000910 <task_1>:
    80000910:	             85818513          	addi	a0,gp,-1960 # 80002918 <fac_n>
    80000914:	             4795                	li	a5,5
    80000916:	             c11c                	sw	a5,0(a0)
    80000918:	             411c                	lw	a5,0(a0)
    8000091a:	             8401ae23          	sw	zero,-1956(gp) # 8000291c <fac_s>
    8000091e:	[38;5;169m/[38;5;169m-[38;5;169m-[38;5;169m-[38;5;169m-[38;5;169m-[38;5;169m-[38;5;169m-[38;5;169m-[38;5;169m-[38;5;169m-[38;5;169m-[0m 0207cb63          	bltz	a5,80000954 <task_1+0x44>
    80000922:	[38;5;169m|[0m            411c                	lw	a5,0(a0)
    80000924:	[38;5;169m|[0m            4601                	li	a2,0
    80000926:	[38;5;169m|[0m            4581                	li	a1,0
    80000928:	[38;5;169m|[0m            4705                	li	a4,1
    8000092a:	[38;5;169m|[0m            2605                	addiw	a2,a2,1
    8000092c:	[38;5;169m|[0m            9db9                	addw	a1,a1,a4
    8000092e:	[38;5;169m|[0m  [38;5;139m/[38;5;139m-[38;5;139m-[38;5;139m-[38;5;139m-[38;5;139m-[38;5;139m-[38;5;139m-[38;5;139m-[0m 00c7ce63          	blt	a5,a2,8000094a <task_1+0x3a>
    80000932:	[38;5;169m|[0m  [38;5;139m|[0m  [38;5;180m/---->[0m 87b2                	mv	a5,a2
    80000934:	[38;5;169m|[0m  [38;5;139m|[0m  [38;5;180m|[0m      4705                	li	a4,1
    80000936:	[38;5;169m|[0m  [38;5;139m|[0m  [38;5;180m|[0m  [38;5;153m/[38;5;153m-[38;5;153m>[0m 86be                	mv	a3,a5
    80000938:	[38;5;169m|[0m  [38;5;139m|[0m  [38;5;180m|[0m  [38;5;153m|[0m   37fd                	addiw	a5,a5,-1
    8000093a:	[38;5;169m|[0m  [38;5;139m|[0m  [38;5;180m|[0m  [38;5;153m|[0m   02e6873b          	mulw	a4,a3,a4
    8000093e:	[38;5;169m|[0m  [38;5;139m|[0m  [38;5;180m|[0m  [38;5;153m\[38;5;153m-[38;5;153m-[0m ffe5                	bnez	a5,80000936 <task_1+0x26>
    80000940:	[38;5;169m|[0m  [38;5;139m|[0m  [38;5;180m|[0m      411c                	lw	a5,0(a0)
    80000942:	[38;5;169m|[0m  [38;5;139m|[0m  [38;5;180m|[0m      2605                	addiw	a2,a2,1
    80000944:	[38;5;169m|[0m  [38;5;139m|[0m  [38;5;180m|[0m      9db9                	addw	a1,a1,a4
    80000946:	[38;5;169m|[0m  [38;5;139m|[0m  [38;5;180m\-----[0m fec7d6e3          	bge	a5,a2,80000932 <task_1+0x22>
    8000094a:	[38;5;169m|[0m  [38;5;139m\[38;5;139m-[38;5;139m-[38;5;139m-[38;5;139m-[38;5;139m-[38;5;139m-[38;5;139m-[38;5;139m>[0m 84b1ae23          	sw	a1,-1956(gp) # 8000291c <fac_s>
    8000094e:	[38;5;169m|[0m            f665851b          	addiw	a0,a1,-154
    80000952:	[38;5;169m|[0m            8082                	ret
    80000954:	[38;5;169m\[38;5;169m-[38;5;169m-[38;5;169m-[38;5;169m-[38;5;169m-[38;5;169m-[38;5;169m-[38;5;169m-[38;5;169m-[38;5;169m-[38;5;169m>[0m f6600513          	li	a0,-154
    80000958:	             8082                	ret

000000008000095a <_iprintf_r>:
    8000095a:	    711d                	addi	sp,sp,-96
    8000095c:	    f022                	sd	s0,32(sp)
    8000095e:	    ec26                	sd	s1,24(sp)
    80000960:	    f406                	sd	ra,40(sp)
    80000962:	    f832                	sd	a2,48(sp)
    80000964:	    fc36                	sd	a3,56(sp)
    80000966:	    e0ba                	sd	a4,64(sp)
    80000968:	    e4be                	sd	a5,72(sp)
    8000096a:	    e8c2                	sd	a6,80(sp)
    8000096c:	    ecc6                	sd	a7,88(sp)
    8000096e:	    842a                	mv	s0,a0
    80000970:	    84ae                	mv	s1,a1
    80000972:	[38;5;181m/--[0m c509                	beqz	a0,8000097c <_iprintf_r+0x22>
    80000974:	[38;5;181m|[0m   591c                	lw	a5,48(a0)
    80000976:	[38;5;181m+--[0m e399                	bnez	a5,8000097c <_iprintf_r+0x22>
    80000978:	[38;5;181m|[0m   122000ef          	jal	ra,80000a9a <__sinit>
    8000097c:	[38;5;181m\->[0m 680c                	ld	a1,16(s0)
    8000097e:	    1814                	addi	a3,sp,48
    80000980:	    8626                	mv	a2,s1
    80000982:	    8522                	mv	a0,s0
    80000984:	    e436                	sd	a3,8(sp)
    80000986:	    4a4000ef          	jal	ra,80000e2a <_vfiprintf_r>
    8000098a:	    70a2                	ld	ra,40(sp)
    8000098c:	    7402                	ld	s0,32(sp)
    8000098e:	    64e2                	ld	s1,24(sp)
    80000990:	    6125                	addi	sp,sp,96
    80000992:	    8082                	ret

0000000080000994 <iprintf>:
    80000994:	    7159                	addi	sp,sp,-112
    80000996:	    f022                	sd	s0,32(sp)
    80000998:	    f406                	sd	ra,40(sp)
    8000099a:	    842a                	mv	s0,a0
    8000099c:	    fc2e                	sd	a1,56(sp)
    8000099e:	    e0b2                	sd	a2,64(sp)
    800009a0:	    e4b6                	sd	a3,72(sp)
    800009a2:	    e8ba                	sd	a4,80(sp)
    800009a4:	    ecbe                	sd	a5,88(sp)
    800009a6:	    f0c2                	sd	a6,96(sp)
    800009a8:	    f4c6                	sd	a7,104(sp)
    800009aa:	    00002517          	auipc	a0,0x2
    800009ae:	    f1653503          	ld	a0,-234(a0) # 800028c0 <_impure_ptr>
    800009b2:	[38;5;130m/--[0m c519                	beqz	a0,800009c0 <iprintf+0x2c>
    800009b4:	[38;5;130m|[0m   591c                	lw	a5,48(a0)
    800009b6:	[38;5;130m+--[0m e789                	bnez	a5,800009c0 <iprintf+0x2c>
    800009b8:	[38;5;130m|[0m   e42a                	sd	a0,8(sp)
    800009ba:	[38;5;130m|[0m   0e0000ef          	jal	ra,80000a9a <__sinit>
    800009be:	[38;5;130m|[0m   6522                	ld	a0,8(sp)
    800009c0:	[38;5;130m\->[0m 690c                	ld	a1,16(a0)
    800009c2:	    1834                	addi	a3,sp,56
    800009c4:	    8622                	mv	a2,s0
    800009c6:	    ec36                	sd	a3,24(sp)
    800009c8:	    462000ef          	jal	ra,80000e2a <_vfiprintf_r>
    800009cc:	    70a2                	ld	ra,40(sp)
    800009ce:	    7402                	ld	s0,32(sp)
    800009d0:	    6165                	addi	sp,sp,112
    800009d2:	    8082                	ret

00000000800009d4 <__fp_lock>:
    800009d4:	4501                	li	a0,0
    800009d6:	8082                	ret

00000000800009d8 <std>:
    800009d8:	1141                	addi	sp,sp,-16
    800009da:	e022                	sd	s0,0(sp)
    800009dc:	e406                	sd	ra,8(sp)
    800009de:	842a                	mv	s0,a0
    800009e0:	00b51823          	sh	a1,16(a0)
    800009e4:	00c51923          	sh	a2,18(a0)
    800009e8:	00053023          	sd	zero,0(a0)
    800009ec:	00053423          	sd	zero,8(a0)
    800009f0:	0a052623          	sw	zero,172(a0)
    800009f4:	00053c23          	sd	zero,24(a0)
    800009f8:	02052023          	sw	zero,32(a0)
    800009fc:	02052423          	sw	zero,40(a0)
    80000a00:	4621                	li	a2,8
    80000a02:	4581                	li	a1,0
    80000a04:	0a450513          	addi	a0,a0,164
    80000a08:	29a000ef          	jal	ra,80000ca2 <memset>
    80000a0c:	00000797          	auipc	a5,0x0
    80000a10:	70478793          	addi	a5,a5,1796 # 80001110 <__sread>
    80000a14:	e03c                	sd	a5,64(s0)
    80000a16:	00000797          	auipc	a5,0x0
    80000a1a:	73078793          	addi	a5,a5,1840 # 80001146 <__swrite>
    80000a1e:	e43c                	sd	a5,72(s0)
    80000a20:	00000797          	auipc	a5,0x0
    80000a24:	77678793          	addi	a5,a5,1910 # 80001196 <__sseek>
    80000a28:	e83c                	sd	a5,80(s0)
    80000a2a:	00000797          	auipc	a5,0x0
    80000a2e:	7a478793          	addi	a5,a5,1956 # 800011ce <__sclose>
    80000a32:	60a2                	ld	ra,8(sp)
    80000a34:	fc00                	sd	s0,56(s0)
    80000a36:	ec3c                	sd	a5,88(s0)
    80000a38:	6402                	ld	s0,0(sp)
    80000a3a:	0141                	addi	sp,sp,16
    80000a3c:	8082                	ret

0000000080000a3e <_cleanup_r>:
    80000a3e:	00001597          	auipc	a1,0x1
    80000a42:	afc58593          	addi	a1,a1,-1284 # 8000153a <_fflush_r>
    80000a46:	aac5                	j	80000c36 <_fwalk_reent>

0000000080000a48 <__fp_unlock>:
    80000a48:	4501                	li	a0,0
    80000a4a:	8082                	ret

0000000080000a4c <__sfmoreglue>:
    80000a4c:	    1101                	addi	sp,sp,-32
    80000a4e:	    e426                	sd	s1,8(sp)
    80000a50:	    0b000793          	li	a5,176
    80000a54:	    fff5849b          	addiw	s1,a1,-1
    80000a58:	    02f484b3          	mul	s1,s1,a5
    80000a5c:	    e04a                	sd	s2,0(sp)
    80000a5e:	    892e                	mv	s2,a1
    80000a60:	    e822                	sd	s0,16(sp)
    80000a62:	    ec06                	sd	ra,24(sp)
    80000a64:	    0c848593          	addi	a1,s1,200
    80000a68:	    24a000ef          	jal	ra,80000cb2 <_malloc_r>
    80000a6c:	    842a                	mv	s0,a0
    80000a6e:	[38;5;209m/[38;5;209m-[38;5;209m-[0m cd01                	beqz	a0,80000a86 <__sfmoreglue+0x3a>
    80000a70:	[38;5;209m|[0m   00053023          	sd	zero,0(a0)
    80000a74:	[38;5;209m|[0m   01252423          	sw	s2,8(a0)
    80000a78:	[38;5;209m|[0m   0561                	addi	a0,a0,24
    80000a7a:	[38;5;209m|[0m   e808                	sd	a0,16(s0)
    80000a7c:	[38;5;209m|[0m   0b048613          	addi	a2,s1,176
    80000a80:	[38;5;209m|[0m   4581                	li	a1,0
    80000a82:	[38;5;209m|[0m   220000ef          	jal	ra,80000ca2 <memset>
    80000a86:	[38;5;209m\[38;5;209m-[38;5;209m>[0m 60e2                	ld	ra,24(sp)
    80000a88:	    8522                	mv	a0,s0
    80000a8a:	    6442                	ld	s0,16(sp)
    80000a8c:	    64a2                	ld	s1,8(sp)
    80000a8e:	    6902                	ld	s2,0(sp)
    80000a90:	    6105                	addi	sp,sp,32
    80000a92:	    8082                	ret

0000000080000a94 <_cleanup>:
    80000a94:	8201b503          	ld	a0,-2016(gp) # 800028e0 <_global_impure_ptr>
    80000a98:	b75d                	j	80000a3e <_cleanup_r>

0000000080000a9a <__sinit>:
    80000a9a:	       591c                	lw	a5,48(a0)
    80000a9c:	[38;5;186m/[38;5;186m-[38;5;186m-[38;5;186m-[38;5;186m-[38;5;186m-[0m e7bd                	bnez	a5,80000b0a <__sinit+0x70>
    80000a9e:	[38;5;186m|[0m      1141                	addi	sp,sp,-16
    80000aa0:	[38;5;186m|[0m      e022                	sd	s0,0(sp)
    80000aa2:	[38;5;186m|[0m      e406                	sd	ra,8(sp)
    80000aa4:	[38;5;186m|[0m      00000797          	auipc	a5,0x0
    80000aa8:	[38;5;186m|[0m      f9a78793          	addi	a5,a5,-102 # 80000a3e <_cleanup_r>
    80000aac:	[38;5;186m|[0m      e53c                	sd	a5,72(a0)
    80000aae:	[38;5;186m|[0m      08053023          	sd	zero,128(a0)
    80000ab2:	[38;5;186m|[0m      08052423          	sw	zero,136(a0)
    80000ab6:	[38;5;186m|[0m      08053823          	sd	zero,144(a0)
    80000aba:	[38;5;186m|[0m      8201b783          	ld	a5,-2016(gp) # 800028e0 <_global_impure_ptr>
    80000abe:	[38;5;186m|[0m      842a                	mv	s0,a0
    80000ac0:	[38;5;186m|[0m  [38;5;138m/[38;5;138m-[38;5;138m-[0m 00f51463          	bne	a0,a5,80000ac8 <__sinit+0x2e>
    80000ac4:	[38;5;186m|[0m  [38;5;138m|[0m   4785                	li	a5,1
    80000ac6:	[38;5;186m|[0m  [38;5;138m|[0m   d91c                	sw	a5,48(a0)
    80000ac8:	[38;5;186m|[0m  [38;5;138m\[38;5;138m-[38;5;138m>[0m 8522                	mv	a0,s0
    80000aca:	[38;5;186m|[0m      042000ef          	jal	ra,80000b0c <__sfp>
    80000ace:	[38;5;186m|[0m      e408                	sd	a0,8(s0)
    80000ad0:	[38;5;186m|[0m      8522                	mv	a0,s0
    80000ad2:	[38;5;186m|[0m      03a000ef          	jal	ra,80000b0c <__sfp>
    80000ad6:	[38;5;186m|[0m      e808                	sd	a0,16(s0)
    80000ad8:	[38;5;186m|[0m      8522                	mv	a0,s0
    80000ada:	[38;5;186m|[0m      032000ef          	jal	ra,80000b0c <__sfp>
    80000ade:	[38;5;186m|[0m      ec08                	sd	a0,24(s0)
    80000ae0:	[38;5;186m|[0m      6408                	ld	a0,8(s0)
    80000ae2:	[38;5;186m|[0m      4601                	li	a2,0
    80000ae4:	[38;5;186m|[0m      4591                	li	a1,4
    80000ae6:	[38;5;186m|[0m      ef3ff0ef          	jal	ra,800009d8 <std>
    80000aea:	[38;5;186m|[0m      6808                	ld	a0,16(s0)
    80000aec:	[38;5;186m|[0m      4605                	li	a2,1
    80000aee:	[38;5;186m|[0m      45a5                	li	a1,9
    80000af0:	[38;5;186m|[0m      ee9ff0ef          	jal	ra,800009d8 <std>
    80000af4:	[38;5;186m|[0m      6c08                	ld	a0,24(s0)
    80000af6:	[38;5;186m|[0m      4609                	li	a2,2
    80000af8:	[38;5;186m|[0m      45c9                	li	a1,18
    80000afa:	[38;5;186m|[0m      edfff0ef          	jal	ra,800009d8 <std>
    80000afe:	[38;5;186m|[0m      4785                	li	a5,1
    80000b00:	[38;5;186m|[0m      60a2                	ld	ra,8(sp)
    80000b02:	[38;5;186m|[0m      d81c                	sw	a5,48(s0)
    80000b04:	[38;5;186m|[0m      6402                	ld	s0,0(sp)
    80000b06:	[38;5;186m|[0m      0141                	addi	sp,sp,16
    80000b08:	[38;5;186m|[0m      8082                	ret
    80000b0a:	[38;5;186m\[38;5;186m-[38;5;186m-[38;5;186m-[38;5;186m-[38;5;186m>[0m 8082                	ret

0000000080000b0c <__sfp>:
    80000b0c:	                1101                	addi	sp,sp,-32
    80000b0e:	                e426                	sd	s1,8(sp)
    80000b10:	                8201b483          	ld	s1,-2016(gp) # 800028e0 <_global_impure_ptr>
    80000b14:	                589c                	lw	a5,48(s1)
    80000b16:	                e04a                	sd	s2,0(sp)
    80000b18:	                ec06                	sd	ra,24(sp)
    80000b1a:	                e822                	sd	s0,16(sp)
    80000b1c:	                892a                	mv	s2,a0
    80000b1e:	            [38;5;133m/--[0m e781                	bnez	a5,80000b26 <__sfp+0x1a>
    80000b20:	            [38;5;133m|[0m   8526                	mv	a0,s1
    80000b22:	            [38;5;133m|[0m   f79ff0ef          	jal	ra,80000a9a <__sinit>
    80000b26:	            [38;5;133m\->[0m 08048493          	addi	s1,s1,128
    80000b2a:	         [38;5;127m/---->[0m 6880                	ld	s0,16(s1)
    80000b2c:	         [38;5;127m|[0m      449c                	lw	a5,8(s1)
    80000b2e:	   [38;5;221m/[38;5;221m-[38;5;221m-[38;5;221m-[38;5;221m-[38;5;221m-[38;5;127m|[38;5;221m-[38;5;221m-[38;5;221m-[38;5;221m-[38;5;221m>[0m 37fd                	addiw	a5,a5,-1
    80000b30:	   [38;5;221m|[0m     [38;5;127m|[0m  [38;5;206m/[38;5;206m-[38;5;206m-[0m 0007d663          	bgez	a5,80000b3c <__sfp+0x30>
    80000b34:	   [38;5;221m|[0m     [38;5;127m|[0m  [38;5;206m|[0m   609c                	ld	a5,0(s1)
    80000b36:	   [38;5;221m|[0m  [38;5;158m/[38;5;158m-[38;5;158m-[38;5;127m|[38;5;158m-[38;5;158m-[38;5;206m|[38;5;158m-[38;5;158m-[0m cfa9                	beqz	a5,80000b90 <__sfp+0x84>
    80000b38:	[38;5;164m/[38;5;164m-[38;5;164m-[38;5;221m|[38;5;164m-[38;5;164m-[38;5;158m|[38;5;164m-[38;5;164m-[38;5;127m|[38;5;164m-[38;5;164m-[38;5;206m|[38;5;164m-[38;5;164m>[0m 6084                	ld	s1,0(s1)
    80000b3a:	[38;5;164m|[0m  [38;5;221m|[0m  [38;5;158m|[0m  [38;5;127m\--[38;5;206m|[38;5;127m--[0m bfc5                	j	80000b2a <__sfp+0x1e>
    80000b3c:	[38;5;164m|[0m  [38;5;221m|[0m  [38;5;158m|[0m     [38;5;206m\[38;5;206m-[38;5;206m>[0m 01041703          	lh	a4,16(s0)
    80000b40:	[38;5;164m|[0m  [38;5;221m|[0m  [38;5;158m|[0m  [38;5;151m/[38;5;151m-[38;5;151m-[38;5;151m-[38;5;151m-[38;5;151m-[0m e729                	bnez	a4,80000b8a <__sfp+0x7e>
    80000b42:	[38;5;164m|[0m  [38;5;221m|[0m  [38;5;158m|[0m  [38;5;151m|[0m      77c1                	lui	a5,0xffff0
    80000b44:	[38;5;164m|[0m  [38;5;221m|[0m  [38;5;158m|[0m  [38;5;151m|[0m      0785                	addi	a5,a5,1 # ffffffffffff0001 <__heap_end+0xffffffff7ffcd001>
    80000b46:	[38;5;164m|[0m  [38;5;221m|[0m  [38;5;158m|[0m  [38;5;151m|[0m      0a042623          	sw	zero,172(s0)
    80000b4a:	[38;5;164m|[0m  [38;5;221m|[0m  [38;5;158m|[0m  [38;5;151m|[0m      00043023          	sd	zero,0(s0)
    80000b4e:	[38;5;164m|[0m  [38;5;221m|[0m  [38;5;158m|[0m  [38;5;151m|[0m      00043423          	sd	zero,8(s0)
    80000b52:	[38;5;164m|[0m  [38;5;221m|[0m  [38;5;158m|[0m  [38;5;151m|[0m      c81c                	sw	a5,16(s0)
    80000b54:	[38;5;164m|[0m  [38;5;221m|[0m  [38;5;158m|[0m  [38;5;151m|[0m      00043c23          	sd	zero,24(s0)
    80000b58:	[38;5;164m|[0m  [38;5;221m|[0m  [38;5;158m|[0m  [38;5;151m|[0m      02042023          	sw	zero,32(s0)
    80000b5c:	[38;5;164m|[0m  [38;5;221m|[0m  [38;5;158m|[0m  [38;5;151m|[0m      02042423          	sw	zero,40(s0)
    80000b60:	[38;5;164m|[0m  [38;5;221m|[0m  [38;5;158m|[0m  [38;5;151m|[0m      4621                	li	a2,8
    80000b62:	[38;5;164m|[0m  [38;5;221m|[0m  [38;5;158m|[0m  [38;5;151m|[0m      4581                	li	a1,0
    80000b64:	[38;5;164m|[0m  [38;5;221m|[0m  [38;5;158m|[0m  [38;5;151m|[0m      0a440513          	addi	a0,s0,164
    80000b68:	[38;5;164m|[0m  [38;5;221m|[0m  [38;5;158m|[0m  [38;5;151m|[0m      13a000ef          	jal	ra,80000ca2 <memset>
    80000b6c:	[38;5;164m|[0m  [38;5;221m|[0m  [38;5;158m|[0m  [38;5;151m|[0m      06043023          	sd	zero,96(s0)
    80000b70:	[38;5;164m|[0m  [38;5;221m|[0m  [38;5;158m|[0m  [38;5;151m|[0m      06042423          	sw	zero,104(s0)
    80000b74:	[38;5;164m|[0m  [38;5;221m|[0m  [38;5;158m|[0m  [38;5;151m|[0m      08043023          	sd	zero,128(s0)
    80000b78:	[38;5;164m|[0m  [38;5;221m|[0m  [38;5;158m|[0m  [38;5;151m|[0m      08042423          	sw	zero,136(s0)
    80000b7c:	[38;5;164m|[0m  [38;5;221m|[0m  [38;5;158m|[0m  [38;5;151m|[0m  [38;5;179m/[38;5;179m-[38;5;179m>[0m 60e2                	ld	ra,24(sp)
    80000b7e:	[38;5;164m|[0m  [38;5;221m|[0m  [38;5;158m|[0m  [38;5;151m|[0m  [38;5;179m|[0m   8522                	mv	a0,s0
    80000b80:	[38;5;164m|[0m  [38;5;221m|[0m  [38;5;158m|[0m  [38;5;151m|[0m  [38;5;179m|[0m   6442                	ld	s0,16(sp)
    80000b82:	[38;5;164m|[0m  [38;5;221m|[0m  [38;5;158m|[0m  [38;5;151m|[0m  [38;5;179m|[0m   64a2                	ld	s1,8(sp)
    80000b84:	[38;5;164m|[0m  [38;5;221m|[0m  [38;5;158m|[0m  [38;5;151m|[0m  [38;5;179m|[0m   6902                	ld	s2,0(sp)
    80000b86:	[38;5;164m|[0m  [38;5;221m|[0m  [38;5;158m|[0m  [38;5;151m|[0m  [38;5;179m|[0m   6105                	addi	sp,sp,32
    80000b88:	[38;5;164m|[0m  [38;5;221m|[0m  [38;5;158m|[0m  [38;5;151m|[0m  [38;5;179m|[0m   8082                	ret
    80000b8a:	[38;5;164m|[0m  [38;5;221m|[0m  [38;5;158m|[0m  [38;5;151m\[38;5;151m-[38;5;151m-[38;5;179m|[38;5;151m-[38;5;151m>[0m 0b040413          	addi	s0,s0,176
    80000b8e:	[38;5;164m|[0m  [38;5;221m\[38;5;221m-[38;5;221m-[38;5;158m|[38;5;221m-[38;5;221m-[38;5;221m-[38;5;221m-[38;5;221m-[38;5;179m|[38;5;221m-[38;5;221m-[0m b745                	j	80000b2e <__sfp+0x22>
    80000b90:	[38;5;164m|[0m     [38;5;158m\[38;5;158m-[38;5;158m-[38;5;158m-[38;5;158m-[38;5;158m-[38;5;179m|[38;5;158m-[38;5;158m>[0m 4591                	li	a1,4
    80000b92:	[38;5;164m|[0m           [38;5;179m|[0m   854a                	mv	a0,s2
    80000b94:	[38;5;164m|[0m           [38;5;179m|[0m   eb9ff0ef          	jal	ra,80000a4c <__sfmoreglue>
    80000b98:	[38;5;164m|[0m           [38;5;179m|[0m   e088                	sd	a0,0(s1)
    80000b9a:	[38;5;164m|[0m           [38;5;179m|[0m   842a                	mv	s0,a0
    80000b9c:	[38;5;164m\[38;5;164m-[38;5;164m-[38;5;164m-[38;5;164m-[38;5;164m-[38;5;164m-[38;5;164m-[38;5;164m-[38;5;164m-[38;5;164m-[38;5;164m-[38;5;179m|[38;5;164m-[38;5;164m-[0m fd51                	bnez	a0,80000b38 <__sfp+0x2c>
    80000b9e:	            [38;5;179m|[0m   47b1                	li	a5,12
    80000ba0:	            [38;5;179m|[0m   00f92023          	sw	a5,0(s2)
    80000ba4:	            [38;5;179m\[38;5;179m-[38;5;179m-[0m bfe1                	j	80000b7c <__sfp+0x70>

0000000080000ba6 <__sfp_lock_acquire>:
    80000ba6:	8082                	ret

0000000080000ba8 <__sfp_lock_release>:
    80000ba8:	8082                	ret

0000000080000baa <__sinit_lock_acquire>:
    80000baa:	8082                	ret

0000000080000bac <__sinit_lock_release>:
    80000bac:	8082                	ret

0000000080000bae <__fp_lock_all>:
    80000bae:	00000597          	auipc	a1,0x0
    80000bb2:	e2658593          	addi	a1,a1,-474 # 800009d4 <__fp_lock>
    80000bb6:	00002517          	auipc	a0,0x2
    80000bba:	d0a53503          	ld	a0,-758(a0) # 800028c0 <_impure_ptr>
    80000bbe:	a811                	j	80000bd2 <_fwalk>

0000000080000bc0 <__fp_unlock_all>:
    80000bc0:	00000597          	auipc	a1,0x0
    80000bc4:	e8858593          	addi	a1,a1,-376 # 80000a48 <__fp_unlock>
    80000bc8:	00002517          	auipc	a0,0x2
    80000bcc:	cf853503          	ld	a0,-776(a0) # 800028c0 <_impure_ptr>
    80000bd0:	a009                	j	80000bd2 <_fwalk>

0000000080000bd2 <_fwalk>:
    80000bd2:	          7139                	addi	sp,sp,-64
    80000bd4:	          f822                	sd	s0,48(sp)
    80000bd6:	          f426                	sd	s1,40(sp)
    80000bd8:	          ec4e                	sd	s3,24(sp)
    80000bda:	          e456                	sd	s5,8(sp)
    80000bdc:	          e05a                	sd	s6,0(sp)
    80000bde:	          fc06                	sd	ra,56(sp)
    80000be0:	          f04a                	sd	s2,32(sp)
    80000be2:	          e852                	sd	s4,16(sp)
    80000be4:	          89ae                	mv	s3,a1
    80000be6:	          08050413          	addi	s0,a0,128
    80000bea:	          4481                	li	s1,0
    80000bec:	          4a85                	li	s5,1
    80000bee:	          5b7d                	li	s6,-1
    80000bf0:	      [38;5;217m/[38;5;217m-[38;5;217m>[0m 01043903          	ld	s2,16(s0)
    80000bf4:	      [38;5;217m|[0m   00842a03          	lw	s4,8(s0)
    80000bf8:	[38;5;227m/-----[38;5;217m|[38;5;227m->[0m 3a7d                	addiw	s4,s4,-1
    80000bfa:	[38;5;227m|[0m  [38;5;125m/--[38;5;217m|[38;5;125m--[0m 000a5f63          	bgez	s4,80000c18 <_fwalk+0x46>
    80000bfe:	[38;5;227m|[0m  [38;5;125m|[0m  [38;5;217m|[0m   6000                	ld	s0,0(s0)
    80000c00:	[38;5;227m|[0m  [38;5;125m|[0m  [38;5;217m\[38;5;217m-[38;5;217m-[0m f865                	bnez	s0,80000bf0 <_fwalk+0x1e>
    80000c02:	[38;5;227m|[0m  [38;5;125m|[0m      70e2                	ld	ra,56(sp)
    80000c04:	[38;5;227m|[0m  [38;5;125m|[0m      7442                	ld	s0,48(sp)
    80000c06:	[38;5;227m|[0m  [38;5;125m|[0m      7902                	ld	s2,32(sp)
    80000c08:	[38;5;227m|[0m  [38;5;125m|[0m      69e2                	ld	s3,24(sp)
    80000c0a:	[38;5;227m|[0m  [38;5;125m|[0m      6a42                	ld	s4,16(sp)
    80000c0c:	[38;5;227m|[0m  [38;5;125m|[0m      6aa2                	ld	s5,8(sp)
    80000c0e:	[38;5;227m|[0m  [38;5;125m|[0m      6b02                	ld	s6,0(sp)
    80000c10:	[38;5;227m|[0m  [38;5;125m|[0m      8526                	mv	a0,s1
    80000c12:	[38;5;227m|[0m  [38;5;125m|[0m      74a2                	ld	s1,40(sp)
    80000c14:	[38;5;227m|[0m  [38;5;125m|[0m      6121                	addi	sp,sp,64
    80000c16:	[38;5;227m|[0m  [38;5;125m|[0m      8082                	ret
    80000c18:	[38;5;227m|[0m  [38;5;125m\---->[0m 01095783          	lhu	a5,16(s2)
    80000c1c:	[38;5;227m|[0m     [38;5;194m/[38;5;194m-[38;5;194m-[0m 00fafa63          	bgeu	s5,a5,80000c30 <_fwalk+0x5e>
    80000c20:	[38;5;227m|[0m     [38;5;194m|[0m   01291783          	lh	a5,18(s2)
    80000c24:	[38;5;227m|[0m     [38;5;194m+[38;5;194m-[38;5;194m-[0m 01678663          	beq	a5,s6,80000c30 <_fwalk+0x5e>
    80000c28:	[38;5;227m|[0m     [38;5;194m|[0m   854a                	mv	a0,s2
    80000c2a:	[38;5;227m|[0m     [38;5;194m|[0m   9982                	jalr	s3
    80000c2c:	[38;5;227m|[0m     [38;5;194m|[0m   8cc9                	or	s1,s1,a0
    80000c2e:	[38;5;227m|[0m     [38;5;194m|[0m   2481                	sext.w	s1,s1
    80000c30:	[38;5;227m|[0m     [38;5;194m\[38;5;194m-[38;5;194m>[0m 0b090913          	addi	s2,s2,176
    80000c34:	[38;5;227m\--------[0m b7d1                	j	80000bf8 <_fwalk+0x26>

0000000080000c36 <_fwalk_reent>:
    80000c36:	          715d                	addi	sp,sp,-80
    80000c38:	          e0a2                	sd	s0,64(sp)
    80000c3a:	          fc26                	sd	s1,56(sp)
    80000c3c:	          f44e                	sd	s3,40(sp)
    80000c3e:	          f052                	sd	s4,32(sp)
    80000c40:	          e85a                	sd	s6,16(sp)
    80000c42:	          e45e                	sd	s7,8(sp)
    80000c44:	          e486                	sd	ra,72(sp)
    80000c46:	          f84a                	sd	s2,48(sp)
    80000c48:	          ec56                	sd	s5,24(sp)
    80000c4a:	          89aa                	mv	s3,a0
    80000c4c:	          8a2e                	mv	s4,a1
    80000c4e:	          08050493          	addi	s1,a0,128
    80000c52:	          4401                	li	s0,0
    80000c54:	          4b05                	li	s6,1
    80000c56:	          5bfd                	li	s7,-1
    80000c58:	      [38;5;221m/->[0m 0104b903          	ld	s2,16(s1)
    80000c5c:	      [38;5;221m|[0m   0084aa83          	lw	s5,8(s1)
    80000c60:	[38;5;224m/-----[38;5;221m|[38;5;224m->[0m 3afd                	addiw	s5,s5,-1
    80000c62:	[38;5;224m|[0m  [38;5;152m/[38;5;152m-[38;5;152m-[38;5;221m|[38;5;152m-[38;5;152m-[0m 020ad063          	bgez	s5,80000c82 <_fwalk_reent+0x4c>
    80000c66:	[38;5;224m|[0m  [38;5;152m|[0m  [38;5;221m|[0m   6084                	ld	s1,0(s1)
    80000c68:	[38;5;224m|[0m  [38;5;152m|[0m  [38;5;221m\--[0m f8e5                	bnez	s1,80000c58 <_fwalk_reent+0x22>
    80000c6a:	[38;5;224m|[0m  [38;5;152m|[0m      60a6                	ld	ra,72(sp)
    80000c6c:	[38;5;224m|[0m  [38;5;152m|[0m      8522                	mv	a0,s0
    80000c6e:	[38;5;224m|[0m  [38;5;152m|[0m      6406                	ld	s0,64(sp)
    80000c70:	[38;5;224m|[0m  [38;5;152m|[0m      74e2                	ld	s1,56(sp)
    80000c72:	[38;5;224m|[0m  [38;5;152m|[0m      7942                	ld	s2,48(sp)
    80000c74:	[38;5;224m|[0m  [38;5;152m|[0m      79a2                	ld	s3,40(sp)
    80000c76:	[38;5;224m|[0m  [38;5;152m|[0m      7a02                	ld	s4,32(sp)
    80000c78:	[38;5;224m|[0m  [38;5;152m|[0m      6ae2                	ld	s5,24(sp)
    80000c7a:	[38;5;224m|[0m  [38;5;152m|[0m      6b42                	ld	s6,16(sp)
    80000c7c:	[38;5;224m|[0m  [38;5;152m|[0m      6ba2                	ld	s7,8(sp)
    80000c7e:	[38;5;224m|[0m  [38;5;152m|[0m      6161                	addi	sp,sp,80
    80000c80:	[38;5;224m|[0m  [38;5;152m|[0m      8082                	ret
    80000c82:	[38;5;224m|[0m  [38;5;152m\[38;5;152m-[38;5;152m-[38;5;152m-[38;5;152m-[38;5;152m>[0m 01095783          	lhu	a5,16(s2)
    80000c86:	[38;5;224m|[0m     [38;5;177m/[38;5;177m-[38;5;177m-[0m 00fb7b63          	bgeu	s6,a5,80000c9c <_fwalk_reent+0x66>
    80000c8a:	[38;5;224m|[0m     [38;5;177m|[0m   01291783          	lh	a5,18(s2)
    80000c8e:	[38;5;224m|[0m     [38;5;177m+[38;5;177m-[38;5;177m-[0m 01778763          	beq	a5,s7,80000c9c <_fwalk_reent+0x66>
    80000c92:	[38;5;224m|[0m     [38;5;177m|[0m   85ca                	mv	a1,s2
    80000c94:	[38;5;224m|[0m     [38;5;177m|[0m   854e                	mv	a0,s3
    80000c96:	[38;5;224m|[0m     [38;5;177m|[0m   9a02                	jalr	s4
    80000c98:	[38;5;224m|[0m     [38;5;177m|[0m   8c49                	or	s0,s0,a0
    80000c9a:	[38;5;224m|[0m     [38;5;177m|[0m   2401                	sext.w	s0,s0
    80000c9c:	[38;5;224m|[0m     [38;5;177m\[38;5;177m-[38;5;177m>[0m 0b090913          	addi	s2,s2,176
    80000ca0:	[38;5;224m\--------[0m b7c1                	j	80000c60 <_fwalk_reent+0x2a>

0000000080000ca2 <memset>:
    80000ca2:	       832a                	mv	t1,a0
    80000ca4:	[38;5;145m/[38;5;145m-[38;5;145m-[38;5;145m-[38;5;145m-[38;5;145m-[0m c611                	beqz	a2,80000cb0 <memset+0xe>
    80000ca6:	[38;5;145m|[0m  [38;5;185m/[38;5;185m-[38;5;185m>[0m 00b30023          	sb	a1,0(t1)
    80000caa:	[38;5;145m|[0m  [38;5;185m|[0m   167d                	addi	a2,a2,-1
    80000cac:	[38;5;145m|[0m  [38;5;185m|[0m   0305                	addi	t1,t1,1
    80000cae:	[38;5;145m|[0m  [38;5;185m\[38;5;185m-[38;5;185m-[0m fe65                	bnez	a2,80000ca6 <memset+0x4>
    80000cb0:	[38;5;145m\[38;5;145m-[38;5;145m-[38;5;145m-[38;5;145m-[38;5;145m>[0m 8082                	ret

0000000080000cb2 <_malloc_r>:
    80000cb2:	                         00758793          	addi	a5,a1,7
    80000cb6:	                         7179                	addi	sp,sp,-48
    80000cb8:	                         9be1                	andi	a5,a5,-8
    80000cba:	                         ec26                	sd	s1,24(sp)
    80000cbc:	                         e84a                	sd	s2,16(sp)
    80000cbe:	                         f406                	sd	ra,40(sp)
    80000cc0:	                         f022                	sd	s0,32(sp)
    80000cc2:	                         e44e                	sd	s3,8(sp)
    80000cc4:	                         07a1                	addi	a5,a5,8
    80000cc6:	                         4741                	li	a4,16
    80000cc8:	                         84aa                	mv	s1,a0
    80000cca:	                         4941                	li	s2,16
    80000ccc:	                     [38;5;135m/[38;5;135m-[38;5;135m-[0m 00e7e363          	bltu	a5,a4,80000cd2 <_malloc_r+0x20>
    80000cd0:	                     [38;5;135m|[0m   893e                	mv	s2,a5
    80000cd2:	                     [38;5;135m\[38;5;135m-[38;5;135m>[0m 80000737          	lui	a4,0x80000
    80000cd6:	                         fff74713          	not	a4,a4
    80000cda:	                     [38;5;202m/--[0m 00f76463          	bltu	a4,a5,80000ce2 <_malloc_r+0x30>
    80000cde:	                  [38;5;125m/--[38;5;202m|[38;5;125m--[0m 00b97c63          	bgeu	s2,a1,80000cf6 <_malloc_r+0x44>
    80000ce2:	                  [38;5;125m|[0m  [38;5;202m\->[0m 47b1                	li	a5,12
    80000ce4:	                  [38;5;125m|[0m      c09c                	sw	a5,0(s1)
    80000ce6:	               [38;5;135m/--[38;5;125m|[38;5;135m---->[0m 4501                	li	a0,0
    80000ce8:	[38;5;186m/--------------[38;5;135m|[38;5;186m--[38;5;125m|[38;5;186m---->[0m 70a2                	ld	ra,40(sp)
    80000cea:	[38;5;186m|[0m              [38;5;135m|[0m  [38;5;125m|[0m      7402                	ld	s0,32(sp)
    80000cec:	[38;5;186m|[0m              [38;5;135m|[0m  [38;5;125m|[0m      64e2                	ld	s1,24(sp)
    80000cee:	[38;5;186m|[0m              [38;5;135m|[0m  [38;5;125m|[0m      6942                	ld	s2,16(sp)
    80000cf0:	[38;5;186m|[0m              [38;5;135m|[0m  [38;5;125m|[0m      69a2                	ld	s3,8(sp)
    80000cf2:	[38;5;186m|[0m              [38;5;135m|[0m  [38;5;125m|[0m      6145                	addi	sp,sp,48
    80000cf4:	[38;5;186m|[0m              [38;5;135m|[0m  [38;5;125m|[0m      8082                	ret
    80000cf6:	[38;5;186m|[0m              [38;5;135m|[0m  [38;5;125m\---->[0m 8526                	mv	a0,s1
    80000cf8:	[38;5;186m|[0m              [38;5;135m|[0m         527000ef          	jal	ra,80001a1e <__malloc_lock>
    80000cfc:	[38;5;186m|[0m              [38;5;135m|[0m         86818693          	addi	a3,gp,-1944 # 80002928 <__malloc_free_list>
    80000d00:	[38;5;186m|[0m              [38;5;135m|[0m         6298                	ld	a4,0(a3)
    80000d02:	[38;5;186m|[0m              [38;5;135m|[0m         843a                	mv	s0,a4
    80000d04:	[38;5;186m|[0m  [38;5;146m/[38;5;146m-[38;5;146m-[38;5;146m-[38;5;146m-[38;5;146m-[38;5;146m-[38;5;146m-[38;5;146m-[38;5;146m-[38;5;146m-[38;5;146m-[38;5;135m|[38;5;146m-[38;5;146m-[38;5;129m/[38;5;129m-[38;5;129m-[38;5;129m-[38;5;129m-[38;5;146mX[0m e41d                	bnez	s0,80000d32 <_malloc_r+0x80>
    80000d06:	[38;5;186m|[0m  [38;5;146m|[0m           [38;5;135m|[0m  [38;5;129m|[0m      86018413          	addi	s0,gp,-1952 # 80002920 <__malloc_sbrk_start>
    80000d0a:	[38;5;186m|[0m  [38;5;146m|[0m           [38;5;135m|[0m  [38;5;129m|[0m      601c                	ld	a5,0(s0)
    80000d0c:	[38;5;186m|[0m  [38;5;146m|[0m           [38;5;135m|[0m  [38;5;129m|[0m  [38;5;160m/[38;5;160m-[38;5;160m-[0m e791                	bnez	a5,80000d18 <_malloc_r+0x66>
    80000d0e:	[38;5;186m|[0m  [38;5;146m|[0m           [38;5;135m|[0m  [38;5;129m|[0m  [38;5;160m|[0m   4581                	li	a1,0
    80000d10:	[38;5;186m|[0m  [38;5;146m|[0m           [38;5;135m|[0m  [38;5;129m|[0m  [38;5;160m|[0m   8526                	mv	a0,s1
    80000d12:	[38;5;186m|[0m  [38;5;146m|[0m           [38;5;135m|[0m  [38;5;129m|[0m  [38;5;160m|[0m   3d6000ef          	jal	ra,800010e8 <_sbrk_r>
    80000d16:	[38;5;186m|[0m  [38;5;146m|[0m           [38;5;135m|[0m  [38;5;129m|[0m  [38;5;160m|[0m   e008                	sd	a0,0(s0)
    80000d18:	[38;5;186m|[0m  [38;5;146m|[0m           [38;5;135m|[0m  [38;5;129m|[0m  [38;5;160m\[38;5;160m-[38;5;160m>[0m 85ca                	mv	a1,s2
    80000d1a:	[38;5;186m|[0m  [38;5;146m|[0m           [38;5;135m|[0m  [38;5;129m|[0m      8526                	mv	a0,s1
    80000d1c:	[38;5;186m|[0m  [38;5;146m|[0m           [38;5;135m|[0m  [38;5;129m|[0m      3cc000ef          	jal	ra,800010e8 <_sbrk_r>
    80000d20:	[38;5;186m|[0m  [38;5;146m|[0m           [38;5;135m|[0m  [38;5;129m|[0m      59fd                	li	s3,-1
    80000d22:	[38;5;186m|[0m  [38;5;146m|[0m     [38;5;149m/-----[38;5;135m|[38;5;149m--[38;5;129m|[38;5;149m-----[0m 05351e63          	bne	a0,s3,80000d7e <_malloc_r+0xcc>
    80000d26:	[38;5;186m|[0m  [38;5;146m|[0m  [38;5;168m/--[38;5;149m|[38;5;168m-----[38;5;135m|[38;5;168m--[38;5;129m|[38;5;168m---->[0m 47b1                	li	a5,12
    80000d28:	[38;5;186m|[0m  [38;5;146m|[0m  [38;5;168m|[0m  [38;5;149m|[0m     [38;5;135m|[0m  [38;5;129m|[0m      c09c                	sw	a5,0(s1)
    80000d2a:	[38;5;186m|[0m  [38;5;146m|[0m  [38;5;168m|[0m  [38;5;149m|[0m     [38;5;135m|[0m  [38;5;129m|[0m      8526                	mv	a0,s1
    80000d2c:	[38;5;186m|[0m  [38;5;146m|[0m  [38;5;168m|[0m  [38;5;149m|[0m     [38;5;135m|[0m  [38;5;129m|[0m      4f5000ef          	jal	ra,80001a20 <__malloc_unlock>
    80000d30:	[38;5;186m|[0m  [38;5;146m|[0m  [38;5;168m|[0m  [38;5;149m|[0m     [38;5;135m\--[38;5;129m|[38;5;135m-----[0m bf5d                	j	80000ce6 <_malloc_r+0x34>
    80000d32:	[38;5;186m|[0m  [38;5;146m|[0m  [38;5;168m|[0m  [38;5;149m|[0m        [38;5;129m\[38;5;129m-[38;5;129m-[38;5;129m-[38;5;129m-[38;5;129m>[0m 601c                	ld	a5,0(s0)
    80000d34:	[38;5;186m|[0m  [38;5;146m|[0m  [38;5;168m|[0m  [38;5;149m|[0m               412787bb          	subw	a5,a5,s2
    80000d38:	[38;5;186m|[0m  [38;5;146m|[0m  [38;5;168m|[0m  [38;5;149m|[0m     [38;5;170m/[38;5;170m-[38;5;170m-[38;5;170m-[38;5;170m-[38;5;170m-[38;5;170m-[38;5;170m-[38;5;170m-[0m 0407c063          	bltz	a5,80000d78 <_malloc_r+0xc6>
    80000d3c:	[38;5;186m|[0m  [38;5;146m|[0m  [38;5;168m|[0m  [38;5;149m|[0m     [38;5;170m|[0m         463d                	li	a2,15
    80000d3e:	[38;5;186m|[0m  [38;5;146m|[0m  [38;5;168m|[0m  [38;5;149m|[0m     [38;5;170m|[0m     [38;5;202m/[38;5;202m-[38;5;202m-[0m 00f65763          	bge	a2,a5,80000d4c <_malloc_r+0x9a>
    80000d42:	[38;5;186m|[0m  [38;5;146m|[0m  [38;5;168m|[0m  [38;5;149m|[0m     [38;5;170m|[0m     [38;5;202m|[0m   e01c                	sd	a5,0(s0)
    80000d44:	[38;5;186m|[0m  [38;5;146m|[0m  [38;5;168m|[0m  [38;5;149m|[0m     [38;5;170m|[0m     [38;5;202m|[0m   943e                	add	s0,s0,a5
    80000d46:	[38;5;186m|[0m  [38;5;146m|[0m  [38;5;168m|[0m  [38;5;149m|[0m  [38;5;138m/--[38;5;170m|[38;5;138m-----[38;5;202m|[38;5;138m->[0m 01243023          	sd	s2,0(s0)
    80000d4a:	[38;5;186m|[0m  [38;5;146m|[0m  [38;5;168m|[0m  [38;5;149m|[0m  [38;5;138m|[0m  [38;5;170m|[0m  [38;5;169m/[38;5;169m-[38;5;169m-[38;5;202m|[38;5;169m-[38;5;169m-[0m a029                	j	80000d54 <_malloc_r+0xa2>
    80000d4c:	[38;5;186m|[0m  [38;5;146m|[0m  [38;5;168m|[0m  [38;5;149m|[0m  [38;5;138m|[0m  [38;5;170m|[0m  [38;5;169m|[0m  [38;5;202m\[38;5;202m-[38;5;202m>[0m 641c                	ld	a5,8(s0)
    80000d4e:	[38;5;186m|[0m  [38;5;146m|[0m  [38;5;168m|[0m  [38;5;149m|[0m  [38;5;138m|[0m  [38;5;170m|[0m  [38;5;169m|[0m  [38;5;202m/--[0m 02871363          	bne	a4,s0,80000d74 <_malloc_r+0xc2>
    80000d52:	[38;5;186m|[0m  [38;5;146m|[0m  [38;5;168m|[0m  [38;5;149m|[0m  [38;5;138m|[0m  [38;5;170m|[0m  [38;5;169m|[0m  [38;5;202m|[0m   e29c                	sd	a5,0(a3)
    80000d54:	[38;5;186m|[0m  [38;5;146m|[0m  [38;5;168m|[0m  [38;5;149m|[0m  [38;5;138m|[0m  [38;5;170m|[0m  [38;5;169m>[38;5;169m-[38;5;169m-[38;5;202m|[38;5;169m-[38;5;169m>[0m 8526                	mv	a0,s1
    80000d56:	[38;5;186m|[0m  [38;5;146m|[0m  [38;5;168m|[0m  [38;5;149m|[0m  [38;5;138m|[0m  [38;5;170m|[0m  [38;5;169m|[0m  [38;5;202m|[0m   4cb000ef          	jal	ra,80001a20 <__malloc_unlock>
    80000d5a:	[38;5;186m|[0m  [38;5;146m|[0m  [38;5;168m|[0m  [38;5;149m|[0m  [38;5;138m|[0m  [38;5;170m|[0m  [38;5;169m|[0m  [38;5;202m|[0m   00f40513          	addi	a0,s0,15
    80000d5e:	[38;5;186m|[0m  [38;5;146m|[0m  [38;5;168m|[0m  [38;5;149m|[0m  [38;5;138m|[0m  [38;5;170m|[0m  [38;5;169m|[0m  [38;5;202m|[0m   00840793          	addi	a5,s0,8
    80000d62:	[38;5;186m|[0m  [38;5;146m|[0m  [38;5;168m|[0m  [38;5;149m|[0m  [38;5;138m|[0m  [38;5;170m|[0m  [38;5;169m|[0m  [38;5;202m|[0m   9961                	andi	a0,a0,-8
    80000d64:	[38;5;186m|[0m  [38;5;146m|[0m  [38;5;168m|[0m  [38;5;149m|[0m  [38;5;138m|[0m  [38;5;170m|[0m  [38;5;169m|[0m  [38;5;202m|[0m   40f507bb          	subw	a5,a0,a5
    80000d68:	[38;5;186m+--[38;5;146m|[38;5;186m--[38;5;168m|[38;5;186m--[38;5;149m|[38;5;186m--[38;5;138m|[38;5;186m--[38;5;170m|[38;5;186m--[38;5;169m|[38;5;186m--[38;5;202m|[38;5;186m--[0m d3c1                	beqz	a5,80000ce8 <_malloc_r+0x36>
    80000d6a:	[38;5;186m|[0m  [38;5;146m|[0m  [38;5;168m|[0m  [38;5;149m|[0m  [38;5;138m|[0m  [38;5;170m|[0m  [38;5;169m|[0m  [38;5;202m|[0m   943e                	add	s0,s0,a5
    80000d6c:	[38;5;186m|[0m  [38;5;146m|[0m  [38;5;168m|[0m  [38;5;149m|[0m  [38;5;138m|[0m  [38;5;170m|[0m  [38;5;169m|[0m  [38;5;202m|[0m   40f007bb          	negw	a5,a5
    80000d70:	[38;5;186m|[0m  [38;5;146m|[0m  [38;5;168m|[0m  [38;5;149m|[0m  [38;5;138m|[0m  [38;5;170m|[0m  [38;5;169m|[0m  [38;5;202m|[0m   e01c                	sd	a5,0(s0)
    80000d72:	[38;5;186m\--[38;5;146m|[38;5;186m--[38;5;168m|[38;5;186m--[38;5;149m|[38;5;186m--[38;5;138m|[38;5;186m--[38;5;170m|[38;5;186m--[38;5;169m|[38;5;186m--[38;5;202m|[38;5;186m--[0m bf9d                	j	80000ce8 <_malloc_r+0x36>
    80000d74:	   [38;5;146m|[0m  [38;5;168m|[0m  [38;5;149m|[0m  [38;5;138m|[0m  [38;5;170m|[0m  [38;5;169m|[0m  [38;5;202m\->[0m e71c                	sd	a5,8(a4)
    80000d76:	   [38;5;146m|[0m  [38;5;168m|[0m  [38;5;149m|[0m  [38;5;138m|[0m  [38;5;170m|[0m  [38;5;169m\[38;5;169m-[38;5;169m-[38;5;169m-[38;5;169m-[38;5;169m-[0m bff9                	j	80000d54 <_malloc_r+0xa2>
    80000d78:	   [38;5;146m|[0m  [38;5;168m|[0m  [38;5;149m|[0m  [38;5;138m|[0m  [38;5;170m\[38;5;170m-[38;5;170m-[38;5;170m-[38;5;170m-[38;5;170m-[38;5;170m-[38;5;170m-[38;5;170m>[0m 8722                	mv	a4,s0
    80000d7a:	   [38;5;146m|[0m  [38;5;168m|[0m  [38;5;149m|[0m  [38;5;138m|[0m            6400                	ld	s0,8(s0)
    80000d7c:	   [38;5;146m\[38;5;146m-[38;5;146m-[38;5;168m|[38;5;146m-[38;5;146m-[38;5;149m|[38;5;146m-[38;5;146m-[38;5;138m|[38;5;146m-[38;5;146m-[38;5;146m-[38;5;146m-[38;5;146m-[38;5;146m-[38;5;146m-[38;5;146m-[38;5;146m-[38;5;146m-[38;5;146m-[0m b761                	j	80000d04 <_malloc_r+0x52>
    80000d7e:	      [38;5;168m|[0m  [38;5;149m\--[38;5;138m|[38;5;149m---------->[0m 00750413          	addi	s0,a0,7
    80000d82:	      [38;5;168m|[0m     [38;5;138m|[0m            9861                	andi	s0,s0,-8
    80000d84:	      [38;5;168m|[0m     [38;5;138m+-----------[0m fc8501e3          	beq	a0,s0,80000d46 <_malloc_r+0x94>
    80000d88:	      [38;5;168m|[0m     [38;5;138m|[0m            40a405b3          	sub	a1,s0,a0
    80000d8c:	      [38;5;168m|[0m     [38;5;138m|[0m            8526                	mv	a0,s1
    80000d8e:	      [38;5;168m|[0m     [38;5;138m|[0m            35a000ef          	jal	ra,800010e8 <_sbrk_r>
    80000d92:	      [38;5;168m|[0m     [38;5;138m\-----------[0m fb351ae3          	bne	a0,s3,80000d46 <_malloc_r+0x94>
    80000d96:	      [38;5;168m\-----------------[0m bf41                	j	80000d26 <_malloc_r+0x74>

0000000080000d98 <__sfputc_r>:
    80000d98:	       465c                	lw	a5,12(a2)
    80000d9a:	       fff7871b          	addiw	a4,a5,-1
    80000d9e:	       c658                	sw	a4,12(a2)
    80000da0:	[38;5;153m/[38;5;153m-[38;5;153m-[38;5;153m-[38;5;153m-[38;5;153m-[0m 00075963          	bgez	a4,80000db2 <__sfputc_r+0x1a>
    80000da4:	[38;5;153m|[0m      561c                	lw	a5,40(a2)
    80000da6:	[38;5;153m|[0m  [38;5;212m/[38;5;212m-[38;5;212m-[0m 00f74563          	blt	a4,a5,80000db0 <__sfputc_r+0x18>
    80000daa:	[38;5;153m|[0m  [38;5;212m|[0m   47a9                	li	a5,10
    80000dac:	[38;5;153m+[38;5;153m-[38;5;153m-[38;5;212m|[38;5;153m-[38;5;153m-[0m 00f59363          	bne	a1,a5,80000db2 <__sfputc_r+0x1a>
    80000db0:	[38;5;153m|[0m  [38;5;212m\[38;5;212m-[38;5;212m>[0m a115                	j	800011d4 <__swbuf_r>
    80000db2:	[38;5;153m\[38;5;153m-[38;5;153m-[38;5;153m-[38;5;153m-[38;5;153m>[0m 621c                	ld	a5,0(a2)
    80000db4:	       852e                	mv	a0,a1
    80000db6:	       00178713          	addi	a4,a5,1
    80000dba:	       e218                	sd	a4,0(a2)
    80000dbc:	       00b78023          	sb	a1,0(a5)
    80000dc0:	       8082                	ret

0000000080000dc2 <__sfputs_r>:
    80000dc2:	          7179                	addi	sp,sp,-48
    80000dc4:	          f022                	sd	s0,32(sp)
    80000dc6:	          ec26                	sd	s1,24(sp)
    80000dc8:	          e84a                	sd	s2,16(sp)
    80000dca:	          e44e                	sd	s3,8(sp)
    80000dcc:	          e052                	sd	s4,0(sp)
    80000dce:	          f406                	sd	ra,40(sp)
    80000dd0:	          892a                	mv	s2,a0
    80000dd2:	          89ae                	mv	s3,a1
    80000dd4:	          8432                	mv	s0,a2
    80000dd6:	          00d604b3          	add	s1,a2,a3
    80000dda:	          5a7d                	li	s4,-1
    80000ddc:	[38;5;177m/[38;5;177m-[38;5;177m-[38;5;177m-[38;5;177m-[38;5;177m-[38;5;210m/[38;5;210m-[38;5;177mX[0m 00941463          	bne	s0,s1,80000de4 <__sfputs_r+0x22>
    80000de0:	[38;5;177m|[0m     [38;5;210m|[0m   4501                	li	a0,0
    80000de2:	[38;5;177m|[0m  [38;5;174m/[38;5;174m-[38;5;174m-[38;5;210m|[38;5;174m-[38;5;174m-[0m a811                	j	80000df6 <__sfputs_r+0x34>
    80000de4:	[38;5;177m|[0m  [38;5;174m|[0m  [38;5;210m\[38;5;210m-[38;5;210m>[0m 00044583          	lbu	a1,0(s0)
    80000de8:	[38;5;177m|[0m  [38;5;174m|[0m      864e                	mv	a2,s3
    80000dea:	[38;5;177m|[0m  [38;5;174m|[0m      854a                	mv	a0,s2
    80000dec:	[38;5;177m|[0m  [38;5;174m|[0m      fadff0ef          	jal	ra,80000d98 <__sfputc_r>
    80000df0:	[38;5;177m|[0m  [38;5;174m|[0m      0405                	addi	s0,s0,1
    80000df2:	[38;5;177m\[38;5;177m-[38;5;177m-[38;5;174m|[38;5;177m-[38;5;177m-[38;5;177m-[38;5;177m-[38;5;177m-[0m ff4515e3          	bne	a0,s4,80000ddc <__sfputs_r+0x1a>
    80000df6:	   [38;5;174m\[38;5;174m-[38;5;174m-[38;5;174m-[38;5;174m-[38;5;174m>[0m 70a2                	ld	ra,40(sp)
    80000df8:	          7402                	ld	s0,32(sp)
    80000dfa:	          64e2                	ld	s1,24(sp)
    80000dfc:	          6942                	ld	s2,16(sp)
    80000dfe:	          69a2                	ld	s3,8(sp)
    80000e00:	          6a02                	ld	s4,0(sp)
    80000e02:	          6145                	addi	sp,sp,48
    80000e04:	          8082                	ret

0000000080000e06 <__sprint_r>:
    80000e06:	       6a1c                	ld	a5,16(a2)
    80000e08:	       1141                	addi	sp,sp,-16
    80000e0a:	       e022                	sd	s0,0(sp)
    80000e0c:	       e406                	sd	ra,8(sp)
    80000e0e:	       8432                	mv	s0,a2
    80000e10:	[38;5;215m/-----[0m cb99                	beqz	a5,80000e26 <__sprint_r+0x20>
    80000e12:	[38;5;215m|[0m      7ac000ef          	jal	ra,800015be <__sfvwrite_r>
    80000e16:	[38;5;215m|[0m      00043823          	sd	zero,16(s0)
    80000e1a:	[38;5;215m|[0m  [38;5;208m/[38;5;208m-[38;5;208m>[0m 60a2                	ld	ra,8(sp)
    80000e1c:	[38;5;215m|[0m  [38;5;208m|[0m   00042423          	sw	zero,8(s0)
    80000e20:	[38;5;215m|[0m  [38;5;208m|[0m   6402                	ld	s0,0(sp)
    80000e22:	[38;5;215m|[0m  [38;5;208m|[0m   0141                	addi	sp,sp,16
    80000e24:	[38;5;215m|[0m  [38;5;208m|[0m   8082                	ret
    80000e26:	[38;5;215m\--[38;5;208m|[38;5;215m->[0m 4501                	li	a0,0
    80000e28:	   [38;5;208m\[38;5;208m-[38;5;208m-[0m bfcd                	j	80000e1a <__sprint_r+0x14>

0000000080000e2a <_vfiprintf_r>:
    80000e2a:	                                              7155                	addi	sp,sp,-208
    80000e2c:	                                              e1a2                	sd	s0,192(sp)
    80000e2e:	                                              fd26                	sd	s1,184(sp)
    80000e30:	                                              f94a                	sd	s2,176(sp)
    80000e32:	                                              f54e                	sd	s3,168(sp)
    80000e34:	                                              f152                	sd	s4,160(sp)
    80000e36:	                                              e586                	sd	ra,200(sp)
    80000e38:	                                              ed56                	sd	s5,152(sp)
    80000e3a:	                                              e95a                	sd	s6,144(sp)
    80000e3c:	                                              e55e                	sd	s7,136(sp)
    80000e3e:	                                              e162                	sd	s8,128(sp)
    80000e40:	                                              fce6                	sd	s9,120(sp)
    80000e42:	                                              f8ea                	sd	s10,112(sp)
    80000e44:	                                              89aa                	mv	s3,a0
    80000e46:	                                              84ae                	mv	s1,a1
    80000e48:	                                              8932                	mv	s2,a2
    80000e4a:	                                              8436                	mv	s0,a3
    80000e4c:	                                              4a01                	li	s4,0
    80000e4e:	                                          [38;5;229m/--[0m c509                	beqz	a0,80000e58 <_vfiprintf_r+0x2e>
    80000e50:	                                          [38;5;229m|[0m   591c                	lw	a5,48(a0)
    80000e52:	                                          [38;5;229m+--[0m e399                	bnez	a5,80000e58 <_vfiprintf_r+0x2e>
    80000e54:	                                          [38;5;229m|[0m   c47ff0ef          	jal	ra,80000a9a <__sinit>
    80000e58:	                                          [38;5;229m\->[0m 00002797          	auipc	a5,0x2
    80000e5c:	                                              87878793          	addi	a5,a5,-1928 # 800026d0 <__sf_fake_stdin>
    80000e60:	                     [38;5;174m/[38;5;174m-[38;5;174m-[38;5;174m-[38;5;174m-[38;5;174m-[38;5;174m-[38;5;174m-[38;5;174m-[38;5;174m-[38;5;174m-[38;5;174m-[38;5;174m-[38;5;174m-[38;5;174m-[38;5;174m-[38;5;174m-[38;5;174m-[38;5;174m-[38;5;174m-[38;5;174m-[38;5;174m-[38;5;174m-[38;5;174m-[0m 0cf49e63          	bne	s1,a5,80000f3c <_vfiprintf_r+0x112>
    80000e64:	                     [38;5;174m|[0m                        0089b483          	ld	s1,8(s3)
    80000e68:	      [38;5;142m/--------------[38;5;174m|[38;5;142m---------------------->[0m 0104d783          	lhu	a5,16(s1)
    80000e6c:	      [38;5;142m|[0m              [38;5;174m|[0m                        8ba1                	andi	a5,a5,8
    80000e6e:	      [38;5;142m|[0m     [38;5;160m/[38;5;160m-[38;5;160m-[38;5;160m-[38;5;160m-[38;5;160m-[38;5;160m-[38;5;160m-[38;5;160m-[38;5;174m|[38;5;160m-[38;5;160m-[38;5;160m-[38;5;160m-[38;5;160m-[38;5;160m-[38;5;160m-[38;5;160m-[38;5;160m-[38;5;160m-[38;5;160m-[38;5;160m-[38;5;160m-[38;5;160m-[38;5;160m-[38;5;160m-[38;5;160m-[38;5;160m-[38;5;160m-[38;5;160m-[38;5;160m-[38;5;160m-[38;5;160m-[0m cbed                	beqz	a5,80000f60 <_vfiprintf_r+0x136>
    80000e70:	      [38;5;142m|[0m     [38;5;160m|[0m        [38;5;174m|[0m                        6c9c                	ld	a5,24(s1)
    80000e72:	      [38;5;142m|[0m     [38;5;160m+[38;5;160m-[38;5;160m-[38;5;160m-[38;5;160m-[38;5;160m-[38;5;160m-[38;5;160m-[38;5;160m-[38;5;174m|[38;5;160m-[38;5;160m-[38;5;160m-[38;5;160m-[38;5;160m-[38;5;160m-[38;5;160m-[38;5;160m-[38;5;160m-[38;5;160m-[38;5;160m-[38;5;160m-[38;5;160m-[38;5;160m-[38;5;160m-[38;5;160m-[38;5;160m-[38;5;160m-[38;5;160m-[38;5;160m-[38;5;160m-[38;5;160m-[38;5;160m-[0m c7fd                	beqz	a5,80000f60 <_vfiprintf_r+0x136>
    80000e74:	      [38;5;142m|[0m  [38;5;152m/[38;5;152m-[38;5;152m-[38;5;160m|[38;5;152m-[38;5;152m-[38;5;152m-[38;5;152m-[38;5;152m-[38;5;152m-[38;5;152m-[38;5;152m-[38;5;174m|[38;5;152m-[38;5;152m-[38;5;152m-[38;5;152m-[38;5;152m-[38;5;152m-[38;5;152m-[38;5;152m-[38;5;152m-[38;5;152m-[38;5;152m-[38;5;152m-[38;5;152m-[38;5;152m-[38;5;152m-[38;5;152m-[38;5;152m-[38;5;152m-[38;5;152m-[38;5;152m-[38;5;152m-[38;5;152m-[38;5;152m>[0m 02000793          	li	a5,32
    80000e78:	      [38;5;142m|[0m  [38;5;152m|[0m  [38;5;160m|[0m        [38;5;174m|[0m                        02f104a3          	sb	a5,41(sp)
    80000e7c:	      [38;5;142m|[0m  [38;5;152m|[0m  [38;5;160m|[0m        [38;5;174m|[0m                        5afd                	li	s5,-1
    80000e7e:	      [38;5;142m|[0m  [38;5;152m|[0m  [38;5;160m|[0m        [38;5;174m|[0m                        03000793          	li	a5,48
    80000e82:	      [38;5;142m|[0m  [38;5;152m|[0m  [38;5;160m|[0m        [38;5;174m|[0m                        d202                	sw	zero,36(sp)
    80000e84:	      [38;5;142m|[0m  [38;5;152m|[0m  [38;5;160m|[0m        [38;5;174m|[0m                        02f10523          	sb	a5,42(sp)
    80000e88:	      [38;5;142m|[0m  [38;5;152m|[0m  [38;5;160m|[0m        [38;5;174m|[0m                        e422                	sd	s0,8(sp)
    80000e8a:	      [38;5;142m|[0m  [38;5;152m|[0m  [38;5;160m|[0m        [38;5;174m|[0m                        02500b93          	li	s7,37
    80000e8e:	      [38;5;142m|[0m  [38;5;152m|[0m  [38;5;160m|[0m        [38;5;174m|[0m                        020a9c13          	slli	s8,s5,0x20
    80000e92:	      [38;5;142m|[0m  [38;5;152m|[0m  [38;5;160m|[0m        [38;5;174m|[0m                        00002b17          	auipc	s6,0x2
    80000e96:	      [38;5;142m|[0m  [38;5;152m|[0m  [38;5;160m|[0m        [38;5;174m|[0m                        876b0b13          	addi	s6,s6,-1930 # 80002708 <__sf_fake_stdin+0x38>
    80000e9a:	      [38;5;142m|[0m  [38;5;152m|[0m  [38;5;160m|[0m        [38;5;174m|[0m                        4c85                	li	s9,1
    80000e9c:	   [38;5;213m/[38;5;213m-[38;5;213m-[38;5;142m|[38;5;213m-[38;5;213m-[38;5;152m|[38;5;213m-[38;5;213m-[38;5;160m|[38;5;213m-[38;5;213m-[38;5;213m-[38;5;213m-[38;5;213m-[38;5;213m-[38;5;213m-[38;5;213m-[38;5;174m|[38;5;213m-[38;5;213m-[38;5;213m-[38;5;213m-[38;5;213m-[38;5;213m-[38;5;213m-[38;5;213m-[38;5;213m-[38;5;213m-[38;5;213m-[38;5;213m-[38;5;213m-[38;5;213m-[38;5;213m-[38;5;213m-[38;5;213m-[38;5;213m-[38;5;213m-[38;5;213m-[38;5;213m-[38;5;213m-[38;5;213m>[0m 844a                	mv	s0,s2
    80000e9e:	   [38;5;213m|[0m  [38;5;142m|[0m  [38;5;152m|[0m  [38;5;160m|[0m  [38;5;192m/-----[38;5;174m|[38;5;192m---------------------->[0m 00044783          	lbu	a5,0(s0)
    80000ea2:	   [38;5;213m|[0m  [38;5;142m|[0m  [38;5;152m|[0m  [38;5;160m|[0m  [38;5;192m|[0m     [38;5;174m|[0m                    [38;5;134m/[38;5;134m-[38;5;134m-[0m c399                	beqz	a5,80000ea8 <_vfiprintf_r+0x7e>
    80000ea4:	   [38;5;213m|[0m  [38;5;142m|[0m  [38;5;152m|[0m  [38;5;160m|[0m  [38;5;192m|[0m  [38;5;152m/--[38;5;174m|[38;5;152m--------------------[38;5;134m|[38;5;152m--[0m 0f779263          	bne	a5,s7,80000f88 <_vfiprintf_r+0x15e>
    80000ea8:	   [38;5;213m|[0m  [38;5;142m|[0m  [38;5;152m|[0m  [38;5;160m|[0m  [38;5;192m|[0m  [38;5;152m|[0m  [38;5;174m|[0m                    [38;5;134m\[38;5;134m-[38;5;134m>[0m 41240d3b          	subw	s10,s0,s2
    80000eac:	   [38;5;213m|[0m  [38;5;142m|[0m  [38;5;152m|[0m  [38;5;160m|[0m  [38;5;192m|[0m  [38;5;152m|[0m  [38;5;174m|[0m                    [38;5;129m/--[0m 000d0e63          	beqz	s10,80000ec8 <_vfiprintf_r+0x9e>
    80000eb0:	   [38;5;213m|[0m  [38;5;142m|[0m  [38;5;152m|[0m  [38;5;160m|[0m  [38;5;192m|[0m  [38;5;152m|[0m  [38;5;174m|[0m                    [38;5;129m|[0m   86ea                	mv	a3,s10
    80000eb2:	   [38;5;213m|[0m  [38;5;142m|[0m  [38;5;152m|[0m  [38;5;160m|[0m  [38;5;192m|[0m  [38;5;152m|[0m  [38;5;174m|[0m                    [38;5;129m|[0m   864a                	mv	a2,s2
    80000eb4:	   [38;5;213m|[0m  [38;5;142m|[0m  [38;5;152m|[0m  [38;5;160m|[0m  [38;5;192m|[0m  [38;5;152m|[0m  [38;5;174m|[0m                    [38;5;129m|[0m   85a6                	mv	a1,s1
    80000eb6:	   [38;5;213m|[0m  [38;5;142m|[0m  [38;5;152m|[0m  [38;5;160m|[0m  [38;5;192m|[0m  [38;5;152m|[0m  [38;5;174m|[0m                    [38;5;129m|[0m   854e                	mv	a0,s3
    80000eb8:	   [38;5;213m|[0m  [38;5;142m|[0m  [38;5;152m|[0m  [38;5;160m|[0m  [38;5;192m|[0m  [38;5;152m|[0m  [38;5;174m|[0m                    [38;5;129m|[0m   f0bff0ef          	jal	ra,80000dc2 <__sfputs_r>
    80000ebc:	[38;5;189m/[38;5;189m-[38;5;189m-[38;5;213m|[38;5;189m-[38;5;189m-[38;5;142m|[38;5;189m-[38;5;189m-[38;5;152m|[38;5;189m-[38;5;189m-[38;5;160m|[38;5;189m-[38;5;189m-[38;5;192m|[38;5;189m-[38;5;189m-[38;5;152m|[38;5;189m-[38;5;189m-[38;5;174m|[38;5;189m-[38;5;189m-[38;5;189m-[38;5;189m-[38;5;189m-[38;5;189m-[38;5;189m-[38;5;189m-[38;5;189m-[38;5;189m-[38;5;189m-[38;5;189m-[38;5;189m-[38;5;189m-[38;5;189m-[38;5;189m-[38;5;189m-[38;5;189m-[38;5;189m-[38;5;189m-[38;5;129m|[38;5;189m-[38;5;189m-[0m 1f550b63          	beq	a0,s5,800010b2 <_vfiprintf_r+0x288>
    80000ec0:	[38;5;189m|[0m  [38;5;213m|[0m  [38;5;142m|[0m  [38;5;152m|[0m  [38;5;160m|[0m  [38;5;192m|[0m  [38;5;152m|[0m  [38;5;174m|[0m                    [38;5;129m|[0m   5792                	lw	a5,36(sp)
    80000ec2:	[38;5;189m|[0m  [38;5;213m|[0m  [38;5;142m|[0m  [38;5;152m|[0m  [38;5;160m|[0m  [38;5;192m|[0m  [38;5;152m|[0m  [38;5;174m|[0m                    [38;5;129m|[0m   01a787bb          	addw	a5,a5,s10
    80000ec6:	[38;5;189m|[0m  [38;5;213m|[0m  [38;5;142m|[0m  [38;5;152m|[0m  [38;5;160m|[0m  [38;5;192m|[0m  [38;5;152m|[0m  [38;5;174m|[0m                    [38;5;129m|[0m   d23e                	sw	a5,36(sp)
    80000ec8:	[38;5;189m|[0m  [38;5;213m|[0m  [38;5;142m|[0m  [38;5;152m|[0m  [38;5;160m|[0m  [38;5;192m|[0m  [38;5;152m|[0m  [38;5;174m|[0m                    [38;5;129m\->[0m 00044783          	lbu	a5,0(s0)
    80000ecc:	[38;5;189m+[38;5;189m-[38;5;189m-[38;5;213m|[38;5;189m-[38;5;189m-[38;5;142m|[38;5;189m-[38;5;189m-[38;5;152m|[38;5;189m-[38;5;189m-[38;5;160m|[38;5;189m-[38;5;189m-[38;5;192m|[38;5;189m-[38;5;189m-[38;5;152m|[38;5;189m-[38;5;189m-[38;5;174m|[38;5;189m-[38;5;189m-[38;5;189m-[38;5;189m-[38;5;189m-[38;5;189m-[38;5;189m-[38;5;189m-[38;5;189m-[38;5;189m-[38;5;189m-[38;5;189m-[38;5;189m-[38;5;189m-[38;5;189m-[38;5;189m-[38;5;189m-[38;5;189m-[38;5;189m-[38;5;189m-[38;5;189m-[38;5;189m-[38;5;189m-[0m 1e078363          	beqz	a5,800010b2 <_vfiprintf_r+0x288>
    80000ed0:	[38;5;189m|[0m  [38;5;213m|[0m  [38;5;142m|[0m  [38;5;152m|[0m  [38;5;160m|[0m  [38;5;192m|[0m  [38;5;152m|[0m  [38;5;174m|[0m                        00140913          	addi	s2,s0,1
    80000ed4:	[38;5;189m|[0m  [38;5;213m|[0m  [38;5;142m|[0m  [38;5;152m|[0m  [38;5;160m|[0m  [38;5;192m|[0m  [38;5;152m|[0m  [38;5;174m|[0m                        e862                	sd	s8,16(sp)
    80000ed6:	[38;5;189m|[0m  [38;5;213m|[0m  [38;5;142m|[0m  [38;5;152m|[0m  [38;5;160m|[0m  [38;5;192m|[0m  [38;5;152m|[0m  [38;5;174m|[0m                        ec02                	sd	zero,24(sp)
    80000ed8:	[38;5;189m|[0m  [38;5;213m|[0m  [38;5;142m|[0m  [38;5;152m|[0m  [38;5;160m|[0m  [38;5;192m|[0m  [38;5;152m|[0m  [38;5;174m|[0m                        040109a3          	sb	zero,83(sp)
    80000edc:	[38;5;189m|[0m  [38;5;213m|[0m  [38;5;142m|[0m  [38;5;152m|[0m  [38;5;160m|[0m  [38;5;192m|[0m  [38;5;152m|[0m  [38;5;174m|[0m                        d482                	sw	zero,104(sp)
    80000ede:	[38;5;189m|[0m  [38;5;213m|[0m  [38;5;142m|[0m  [38;5;152m|[0m  [38;5;160m|[0m  [38;5;192m|[0m  [38;5;152m|[0m  [38;5;174m|[0m           [38;5;146m/[38;5;146m-[38;5;146m-[38;5;146m-[38;5;146m-[38;5;146m-[38;5;146m-[38;5;146m-[38;5;146m-[38;5;146m-[38;5;146m-[38;5;146m>[0m 00094583          	lbu	a1,0(s2)
    80000ee2:	[38;5;189m|[0m  [38;5;213m|[0m  [38;5;142m|[0m  [38;5;152m|[0m  [38;5;160m|[0m  [38;5;192m|[0m  [38;5;152m|[0m  [38;5;174m|[0m           [38;5;146m|[0m            4615                	li	a2,5
    80000ee4:	[38;5;189m|[0m  [38;5;213m|[0m  [38;5;142m|[0m  [38;5;152m|[0m  [38;5;160m|[0m  [38;5;192m|[0m  [38;5;152m|[0m  [38;5;174m|[0m           [38;5;146m|[0m            855a                	mv	a0,s6
    80000ee6:	[38;5;189m|[0m  [38;5;213m|[0m  [38;5;142m|[0m  [38;5;152m|[0m  [38;5;160m|[0m  [38;5;192m|[0m  [38;5;152m|[0m  [38;5;174m|[0m           [38;5;146m|[0m            2e3000ef          	jal	ra,800019c8 <memchr>
    80000eea:	[38;5;189m|[0m  [38;5;213m|[0m  [38;5;142m|[0m  [38;5;152m|[0m  [38;5;160m|[0m  [38;5;192m|[0m  [38;5;152m|[0m  [38;5;174m|[0m           [38;5;146m|[0m            47c2                	lw	a5,16(sp)
    80000eec:	[38;5;189m|[0m  [38;5;213m|[0m  [38;5;142m|[0m  [38;5;152m|[0m  [38;5;160m|[0m  [38;5;192m|[0m  [38;5;152m|[0m  [38;5;174m|[0m           [38;5;146m|[0m            00190413          	addi	s0,s2,1
    80000ef0:	[38;5;189m|[0m  [38;5;213m|[0m  [38;5;142m|[0m  [38;5;152m|[0m  [38;5;160m|[0m  [38;5;192m|[0m  [38;5;152m|[0m  [38;5;174m|[0m           [38;5;146m|[0m  [38;5;205m/[38;5;205m-[38;5;205m-[38;5;205m-[38;5;205m-[38;5;205m-[38;5;205m-[38;5;205m-[38;5;205m-[0m ed51                	bnez	a0,80000f8c <_vfiprintf_r+0x162>
    80000ef2:	[38;5;189m|[0m  [38;5;213m|[0m  [38;5;142m|[0m  [38;5;152m|[0m  [38;5;160m|[0m  [38;5;192m|[0m  [38;5;152m|[0m  [38;5;174m|[0m           [38;5;146m|[0m  [38;5;205m|[0m         0107f713          	andi	a4,a5,16
    80000ef6:	[38;5;189m|[0m  [38;5;213m|[0m  [38;5;142m|[0m  [38;5;152m|[0m  [38;5;160m|[0m  [38;5;192m|[0m  [38;5;152m|[0m  [38;5;174m|[0m           [38;5;146m|[0m  [38;5;205m|[0m     [38;5;134m/[38;5;134m-[38;5;134m-[0m c709                	beqz	a4,80000f00 <_vfiprintf_r+0xd6>
    80000ef8:	[38;5;189m|[0m  [38;5;213m|[0m  [38;5;142m|[0m  [38;5;152m|[0m  [38;5;160m|[0m  [38;5;192m|[0m  [38;5;152m|[0m  [38;5;174m|[0m           [38;5;146m|[0m  [38;5;205m|[0m     [38;5;134m|[0m   02000713          	li	a4,32
    80000efc:	[38;5;189m|[0m  [38;5;213m|[0m  [38;5;142m|[0m  [38;5;152m|[0m  [38;5;160m|[0m  [38;5;192m|[0m  [38;5;152m|[0m  [38;5;174m|[0m           [38;5;146m|[0m  [38;5;205m|[0m     [38;5;134m|[0m   04e109a3          	sb	a4,83(sp)
    80000f00:	[38;5;189m|[0m  [38;5;213m|[0m  [38;5;142m|[0m  [38;5;152m|[0m  [38;5;160m|[0m  [38;5;192m|[0m  [38;5;152m|[0m  [38;5;174m|[0m           [38;5;146m|[0m  [38;5;205m|[0m     [38;5;134m\[38;5;134m-[38;5;134m>[0m 0087f713          	andi	a4,a5,8
    80000f04:	[38;5;189m|[0m  [38;5;213m|[0m  [38;5;142m|[0m  [38;5;152m|[0m  [38;5;160m|[0m  [38;5;192m|[0m  [38;5;152m|[0m  [38;5;174m|[0m           [38;5;146m|[0m  [38;5;205m|[0m     [38;5;188m/[38;5;188m-[38;5;188m-[0m c709                	beqz	a4,80000f0e <_vfiprintf_r+0xe4>
    80000f06:	[38;5;189m|[0m  [38;5;213m|[0m  [38;5;142m|[0m  [38;5;152m|[0m  [38;5;160m|[0m  [38;5;192m|[0m  [38;5;152m|[0m  [38;5;174m|[0m           [38;5;146m|[0m  [38;5;205m|[0m     [38;5;188m|[0m   02b00713          	li	a4,43
    80000f0a:	[38;5;189m|[0m  [38;5;213m|[0m  [38;5;142m|[0m  [38;5;152m|[0m  [38;5;160m|[0m  [38;5;192m|[0m  [38;5;152m|[0m  [38;5;174m|[0m           [38;5;146m|[0m  [38;5;205m|[0m     [38;5;188m|[0m   04e109a3          	sb	a4,83(sp)
    80000f0e:	[38;5;189m|[0m  [38;5;213m|[0m  [38;5;142m|[0m  [38;5;152m|[0m  [38;5;160m|[0m  [38;5;192m|[0m  [38;5;152m|[0m  [38;5;174m|[0m           [38;5;146m|[0m  [38;5;205m|[0m     [38;5;188m\[38;5;188m-[38;5;188m>[0m 00094683          	lbu	a3,0(s2)
    80000f12:	[38;5;189m|[0m  [38;5;213m|[0m  [38;5;142m|[0m  [38;5;152m|[0m  [38;5;160m|[0m  [38;5;192m|[0m  [38;5;152m|[0m  [38;5;174m|[0m           [38;5;146m|[0m  [38;5;205m|[0m         02a00713          	li	a4,42
    80000f16:	[38;5;189m|[0m  [38;5;213m|[0m  [38;5;142m|[0m  [38;5;152m|[0m  [38;5;160m|[0m  [38;5;192m|[0m  [38;5;152m|[0m  [38;5;174m|[0m           [38;5;146m|[0m  [38;5;205m|[0m  [38;5;227m/-----[0m 08e68363          	beq	a3,a4,80000f9c <_vfiprintf_r+0x172>
    80000f1a:	[38;5;189m|[0m  [38;5;213m|[0m  [38;5;142m|[0m  [38;5;152m|[0m  [38;5;160m|[0m  [38;5;192m|[0m  [38;5;152m|[0m  [38;5;174m|[0m           [38;5;146m|[0m  [38;5;205m|[0m  [38;5;227m|[0m      47f2                	lw	a5,28(sp)
    80000f1c:	[38;5;189m|[0m  [38;5;213m|[0m  [38;5;142m|[0m  [38;5;152m|[0m  [38;5;160m|[0m  [38;5;192m|[0m  [38;5;152m|[0m  [38;5;174m|[0m           [38;5;146m|[0m  [38;5;205m|[0m  [38;5;227m|[0m      844a                	mv	s0,s2
    80000f1e:	[38;5;189m|[0m  [38;5;213m|[0m  [38;5;142m|[0m  [38;5;152m|[0m  [38;5;160m|[0m  [38;5;192m|[0m  [38;5;152m|[0m  [38;5;174m|[0m           [38;5;146m|[0m  [38;5;205m|[0m  [38;5;227m|[0m      4681                	li	a3,0
    80000f20:	[38;5;189m|[0m  [38;5;213m|[0m  [38;5;142m|[0m  [38;5;152m|[0m  [38;5;160m|[0m  [38;5;192m|[0m  [38;5;152m|[0m  [38;5;174m|[0m           [38;5;146m|[0m  [38;5;205m|[0m  [38;5;227m|[0m      4625                	li	a2,9
    80000f22:	[38;5;189m|[0m  [38;5;213m|[0m  [38;5;142m|[0m  [38;5;152m|[0m  [38;5;160m|[0m  [38;5;192m|[0m  [38;5;152m|[0m  [38;5;174m|[0m           [38;5;146m|[0m  [38;5;205m|[0m  [38;5;227m|[0m      4829                	li	a6,10
    80000f24:	[38;5;189m|[0m  [38;5;213m|[0m  [38;5;142m|[0m  [38;5;152m|[0m  [38;5;160m|[0m  [38;5;192m|[0m  [38;5;152m|[0m  [38;5;174m|[0m  [38;5;127m/--------[38;5;146m|[38;5;127m--[38;5;205m|[38;5;127m--[38;5;227m|[38;5;127m---->[0m 00044703          	lbu	a4,0(s0)
    80000f28:	[38;5;189m|[0m  [38;5;213m|[0m  [38;5;142m|[0m  [38;5;152m|[0m  [38;5;160m|[0m  [38;5;192m|[0m  [38;5;152m|[0m  [38;5;174m|[0m  [38;5;127m|[0m        [38;5;146m|[0m  [38;5;205m|[0m  [38;5;227m|[0m      00140513          	addi	a0,s0,1
    80000f2c:	[38;5;189m|[0m  [38;5;213m|[0m  [38;5;142m|[0m  [38;5;152m|[0m  [38;5;160m|[0m  [38;5;192m|[0m  [38;5;152m|[0m  [38;5;174m|[0m  [38;5;127m|[0m        [38;5;146m|[0m  [38;5;205m|[0m  [38;5;227m|[0m      fd07059b          	addiw	a1,a4,-48
    80000f30:	[38;5;189m|[0m  [38;5;213m|[0m  [38;5;142m|[0m  [38;5;152m|[0m  [38;5;160m|[0m  [38;5;192m|[0m  [38;5;152m|[0m  [38;5;174m|[0m  [38;5;127m|[0m        [38;5;146m|[0m  [38;5;205m|[0m  [38;5;227m|[0m      872e                	mv	a4,a1
    80000f32:	[38;5;189m|[0m  [38;5;213m|[0m  [38;5;142m|[0m  [38;5;152m|[0m  [38;5;160m|[0m  [38;5;192m|[0m  [38;5;152m|[0m  [38;5;174m|[0m  [38;5;127m|[0m  [38;5;218m/[38;5;218m-[38;5;218m-[38;5;218m-[38;5;218m-[38;5;218m-[38;5;146m|[38;5;218m-[38;5;218m-[38;5;205m|[38;5;218m-[38;5;218m-[38;5;227m|[38;5;218m-[38;5;218m-[38;5;218m-[38;5;218m-[38;5;218m-[0m 0ab67c63          	bgeu	a2,a1,80000fea <_vfiprintf_r+0x1c0>
    80000f36:	[38;5;189m|[0m  [38;5;213m|[0m  [38;5;142m|[0m  [38;5;152m|[0m  [38;5;160m|[0m  [38;5;192m|[0m  [38;5;152m|[0m  [38;5;174m|[0m  [38;5;127m|[0m  [38;5;218m|[0m  [38;5;138m/[38;5;138m-[38;5;138m-[38;5;146m|[38;5;138m-[38;5;138m-[38;5;205m|[38;5;138m-[38;5;138m-[38;5;227m|[38;5;138m-[38;5;138m-[38;5;138m-[38;5;138m-[38;5;138m-[0m cabd                	beqz	a3,80000fac <_vfiprintf_r+0x182>
    80000f38:	[38;5;189m|[0m  [38;5;213m|[0m  [38;5;142m|[0m  [38;5;152m|[0m  [38;5;160m|[0m  [38;5;192m|[0m  [38;5;152m|[0m  [38;5;174m|[0m  [38;5;127m|[0m  [38;5;218m|[0m  [38;5;138m|[0m  [38;5;146m|[0m  [38;5;205m|[0m  [38;5;227m|[0m      ce3e                	sw	a5,28(sp)
    80000f3a:	[38;5;189m|[0m  [38;5;213m|[0m  [38;5;142m|[0m  [38;5;152m|[0m  [38;5;160m|[0m  [38;5;192m|[0m  [38;5;152m|[0m  [38;5;174m|[0m  [38;5;127m|[0m  [38;5;218m|[0m  [38;5;138m+[38;5;138m-[38;5;138m-[38;5;146m|[38;5;138m-[38;5;138m-[38;5;205m|[38;5;138m-[38;5;138m-[38;5;227m|[38;5;138m-[38;5;138m-[38;5;138m-[38;5;138m-[38;5;138m-[0m a88d                	j	80000fac <_vfiprintf_r+0x182>
    80000f3c:	[38;5;189m|[0m  [38;5;213m|[0m  [38;5;142m|[0m  [38;5;152m|[0m  [38;5;160m|[0m  [38;5;192m|[0m  [38;5;152m|[0m  [38;5;174m\[38;5;174m-[38;5;174m-[38;5;127m|[38;5;174m-[38;5;174m-[38;5;218m|[38;5;174m-[38;5;174m-[38;5;138m|[38;5;174m-[38;5;174m-[38;5;146m|[38;5;174m-[38;5;174m-[38;5;205m|[38;5;174m-[38;5;174m-[38;5;227m|[38;5;174m-[38;5;174m-[38;5;174m-[38;5;174m-[38;5;174m>[0m 00001797          	auipc	a5,0x1
    80000f40:	[38;5;189m|[0m  [38;5;213m|[0m  [38;5;142m|[0m  [38;5;152m|[0m  [38;5;160m|[0m  [38;5;192m|[0m  [38;5;152m|[0m     [38;5;127m|[0m  [38;5;218m|[0m  [38;5;138m|[0m  [38;5;146m|[0m  [38;5;205m|[0m  [38;5;227m|[0m      75c78793          	addi	a5,a5,1884 # 80002698 <__sf_fake_stdout>
    80000f44:	[38;5;189m|[0m  [38;5;213m|[0m  [38;5;142m|[0m  [38;5;152m|[0m  [38;5;160m|[0m  [38;5;192m|[0m  [38;5;152m|[0m     [38;5;127m|[0m  [38;5;218m|[0m  [38;5;138m|[0m  [38;5;146m|[0m  [38;5;205m|[0m  [38;5;227m|[0m  [38;5;152m/[38;5;152m-[38;5;152m-[0m 00f49563          	bne	s1,a5,80000f4e <_vfiprintf_r+0x124>
    80000f48:	[38;5;189m|[0m  [38;5;213m|[0m  [38;5;142m|[0m  [38;5;152m|[0m  [38;5;160m|[0m  [38;5;192m|[0m  [38;5;152m|[0m     [38;5;127m|[0m  [38;5;218m|[0m  [38;5;138m|[0m  [38;5;146m|[0m  [38;5;205m|[0m  [38;5;227m|[0m  [38;5;152m|[0m   0109b483          	ld	s1,16(s3)
    80000f4c:	[38;5;189m|[0m  [38;5;213m|[0m  [38;5;142m+--[38;5;152m|[38;5;142m--[38;5;160m|[38;5;142m--[38;5;192m|[38;5;142m--[38;5;152m|[38;5;142m-----[38;5;127m|[38;5;142m--[38;5;218m|[38;5;142m--[38;5;138m|[38;5;142m--[38;5;146m|[38;5;142m--[38;5;205m|[38;5;142m--[38;5;227m|[38;5;142m--[38;5;152m|[38;5;142m--[0m bf31                	j	80000e68 <_vfiprintf_r+0x3e>
    80000f4e:	[38;5;189m|[0m  [38;5;213m|[0m  [38;5;142m|[0m  [38;5;152m|[0m  [38;5;160m|[0m  [38;5;192m|[0m  [38;5;152m|[0m     [38;5;127m|[0m  [38;5;218m|[0m  [38;5;138m|[0m  [38;5;146m|[0m  [38;5;205m|[0m  [38;5;227m|[0m  [38;5;152m\[38;5;152m-[38;5;152m>[0m 00001797          	auipc	a5,0x1
    80000f52:	[38;5;189m|[0m  [38;5;213m|[0m  [38;5;142m|[0m  [38;5;152m|[0m  [38;5;160m|[0m  [38;5;192m|[0m  [38;5;152m|[0m     [38;5;127m|[0m  [38;5;218m|[0m  [38;5;138m|[0m  [38;5;146m|[0m  [38;5;205m|[0m  [38;5;227m|[0m      71278793          	addi	a5,a5,1810 # 80002660 <__sf_fake_stderr>
    80000f56:	[38;5;189m|[0m  [38;5;213m|[0m  [38;5;142m+--[38;5;152m|[38;5;142m--[38;5;160m|[38;5;142m--[38;5;192m|[38;5;142m--[38;5;152m|[38;5;142m-----[38;5;127m|[38;5;142m--[38;5;218m|[38;5;142m--[38;5;138m|[38;5;142m--[38;5;146m|[38;5;142m--[38;5;205m|[38;5;142m--[38;5;227m|[38;5;142m-----[0m f0f499e3          	bne	s1,a5,80000e68 <_vfiprintf_r+0x3e>
    80000f5a:	[38;5;189m|[0m  [38;5;213m|[0m  [38;5;142m|[0m  [38;5;152m|[0m  [38;5;160m|[0m  [38;5;192m|[0m  [38;5;152m|[0m     [38;5;127m|[0m  [38;5;218m|[0m  [38;5;138m|[0m  [38;5;146m|[0m  [38;5;205m|[0m  [38;5;227m|[0m      0189b483          	ld	s1,24(s3)
    80000f5e:	[38;5;189m|[0m  [38;5;213m|[0m  [38;5;142m\--[38;5;152m|[38;5;142m--[38;5;160m|[38;5;142m--[38;5;192m|[38;5;142m--[38;5;152m|[38;5;142m-----[38;5;127m|[38;5;142m--[38;5;218m|[38;5;142m--[38;5;138m|[38;5;142m--[38;5;146m|[38;5;142m--[38;5;205m|[38;5;142m--[38;5;227m|[38;5;142m-----[0m b729                	j	80000e68 <_vfiprintf_r+0x3e>
    80000f60:	[38;5;189m|[0m  [38;5;213m|[0m     [38;5;152m|[0m  [38;5;160m\[38;5;160m-[38;5;160m-[38;5;192m|[38;5;160m-[38;5;160m-[38;5;152m|[38;5;160m-[38;5;160m-[38;5;160m-[38;5;160m-[38;5;160m-[38;5;127m|[38;5;160m-[38;5;160m-[38;5;218m|[38;5;160m-[38;5;160m-[38;5;138m|[38;5;160m-[38;5;160m-[38;5;146m|[38;5;160m-[38;5;160m-[38;5;205m|[38;5;160m-[38;5;160m-[38;5;227m|[38;5;160m-[38;5;160m-[38;5;160m-[38;5;160m-[38;5;160m>[0m 85a6                	mv	a1,s1
    80000f62:	[38;5;189m|[0m  [38;5;213m|[0m     [38;5;152m|[0m     [38;5;192m|[0m  [38;5;152m|[0m     [38;5;127m|[0m  [38;5;218m|[0m  [38;5;138m|[0m  [38;5;146m|[0m  [38;5;205m|[0m  [38;5;227m|[0m      854e                	mv	a0,s3
    80000f64:	[38;5;189m|[0m  [38;5;213m|[0m     [38;5;152m|[0m     [38;5;192m|[0m  [38;5;152m|[0m     [38;5;127m|[0m  [38;5;218m|[0m  [38;5;138m|[0m  [38;5;146m|[0m  [38;5;205m|[0m  [38;5;227m|[0m      370000ef          	jal	ra,800012d4 <__swsetup_r>
    80000f68:	[38;5;189m|[0m  [38;5;213m|[0m     [38;5;152m\[38;5;152m-[38;5;152m-[38;5;152m-[38;5;152m-[38;5;152m-[38;5;192m|[38;5;152m-[38;5;152m-[38;5;152m|[38;5;152m-[38;5;152m-[38;5;152m-[38;5;152m-[38;5;152m-[38;5;127m|[38;5;152m-[38;5;152m-[38;5;218m|[38;5;152m-[38;5;152m-[38;5;138m|[38;5;152m-[38;5;152m-[38;5;146m|[38;5;152m-[38;5;152m-[38;5;205m|[38;5;152m-[38;5;152m-[38;5;227m|[38;5;152m-[38;5;152m-[38;5;152m-[38;5;152m-[38;5;152m-[0m d511                	beqz	a0,80000e74 <_vfiprintf_r+0x4a>
    80000f6a:	[38;5;189m|[0m  [38;5;213m|[0m           [38;5;192m|[0m  [38;5;152m|[0m  [38;5;143m/--[38;5;127m|[38;5;143m--[38;5;218m|[38;5;143m--[38;5;138m|[38;5;143m--[38;5;146m|[38;5;143m--[38;5;205m|[38;5;143m--[38;5;227m|[38;5;143m---->[0m 557d                	li	a0,-1
    80000f6c:	[38;5;189m|[0m  [38;5;213m|[0m        [38;5;209m/[38;5;209m-[38;5;209m-[38;5;192m|[38;5;209m-[38;5;209m-[38;5;152m|[38;5;209m-[38;5;209m-[38;5;143m|[38;5;209m-[38;5;209m-[38;5;127m|[38;5;209m-[38;5;209m-[38;5;218m|[38;5;209m-[38;5;209m-[38;5;138m|[38;5;209m-[38;5;209m-[38;5;146m|[38;5;209m-[38;5;209m-[38;5;205m|[38;5;209m-[38;5;209m-[38;5;227m|[38;5;209m-[38;5;209m-[38;5;209m-[38;5;209m-[38;5;209m>[0m 60ae                	ld	ra,200(sp)
    80000f6e:	[38;5;189m|[0m  [38;5;213m|[0m        [38;5;209m|[0m  [38;5;192m|[0m  [38;5;152m|[0m  [38;5;143m|[0m  [38;5;127m|[0m  [38;5;218m|[0m  [38;5;138m|[0m  [38;5;146m|[0m  [38;5;205m|[0m  [38;5;227m|[0m      640e                	ld	s0,192(sp)
    80000f70:	[38;5;189m|[0m  [38;5;213m|[0m        [38;5;209m|[0m  [38;5;192m|[0m  [38;5;152m|[0m  [38;5;143m|[0m  [38;5;127m|[0m  [38;5;218m|[0m  [38;5;138m|[0m  [38;5;146m|[0m  [38;5;205m|[0m  [38;5;227m|[0m      74ea                	ld	s1,184(sp)
    80000f72:	[38;5;189m|[0m  [38;5;213m|[0m        [38;5;209m|[0m  [38;5;192m|[0m  [38;5;152m|[0m  [38;5;143m|[0m  [38;5;127m|[0m  [38;5;218m|[0m  [38;5;138m|[0m  [38;5;146m|[0m  [38;5;205m|[0m  [38;5;227m|[0m      794a                	ld	s2,176(sp)
    80000f74:	[38;5;189m|[0m  [38;5;213m|[0m        [38;5;209m|[0m  [38;5;192m|[0m  [38;5;152m|[0m  [38;5;143m|[0m  [38;5;127m|[0m  [38;5;218m|[0m  [38;5;138m|[0m  [38;5;146m|[0m  [38;5;205m|[0m  [38;5;227m|[0m      79aa                	ld	s3,168(sp)
    80000f76:	[38;5;189m|[0m  [38;5;213m|[0m        [38;5;209m|[0m  [38;5;192m|[0m  [38;5;152m|[0m  [38;5;143m|[0m  [38;5;127m|[0m  [38;5;218m|[0m  [38;5;138m|[0m  [38;5;146m|[0m  [38;5;205m|[0m  [38;5;227m|[0m      7a0a                	ld	s4,160(sp)
    80000f78:	[38;5;189m|[0m  [38;5;213m|[0m        [38;5;209m|[0m  [38;5;192m|[0m  [38;5;152m|[0m  [38;5;143m|[0m  [38;5;127m|[0m  [38;5;218m|[0m  [38;5;138m|[0m  [38;5;146m|[0m  [38;5;205m|[0m  [38;5;227m|[0m      6aea                	ld	s5,152(sp)
    80000f7a:	[38;5;189m|[0m  [38;5;213m|[0m        [38;5;209m|[0m  [38;5;192m|[0m  [38;5;152m|[0m  [38;5;143m|[0m  [38;5;127m|[0m  [38;5;218m|[0m  [38;5;138m|[0m  [38;5;146m|[0m  [38;5;205m|[0m  [38;5;227m|[0m      6b4a                	ld	s6,144(sp)
    80000f7c:	[38;5;189m|[0m  [38;5;213m|[0m        [38;5;209m|[0m  [38;5;192m|[0m  [38;5;152m|[0m  [38;5;143m|[0m  [38;5;127m|[0m  [38;5;218m|[0m  [38;5;138m|[0m  [38;5;146m|[0m  [38;5;205m|[0m  [38;5;227m|[0m      6baa                	ld	s7,136(sp)
    80000f7e:	[38;5;189m|[0m  [38;5;213m|[0m        [38;5;209m|[0m  [38;5;192m|[0m  [38;5;152m|[0m  [38;5;143m|[0m  [38;5;127m|[0m  [38;5;218m|[0m  [38;5;138m|[0m  [38;5;146m|[0m  [38;5;205m|[0m  [38;5;227m|[0m      6c0a                	ld	s8,128(sp)
    80000f80:	[38;5;189m|[0m  [38;5;213m|[0m        [38;5;209m|[0m  [38;5;192m|[0m  [38;5;152m|[0m  [38;5;143m|[0m  [38;5;127m|[0m  [38;5;218m|[0m  [38;5;138m|[0m  [38;5;146m|[0m  [38;5;205m|[0m  [38;5;227m|[0m      7ce6                	ld	s9,120(sp)
    80000f82:	[38;5;189m|[0m  [38;5;213m|[0m        [38;5;209m|[0m  [38;5;192m|[0m  [38;5;152m|[0m  [38;5;143m|[0m  [38;5;127m|[0m  [38;5;218m|[0m  [38;5;138m|[0m  [38;5;146m|[0m  [38;5;205m|[0m  [38;5;227m|[0m      7d46                	ld	s10,112(sp)
    80000f84:	[38;5;189m|[0m  [38;5;213m|[0m        [38;5;209m|[0m  [38;5;192m|[0m  [38;5;152m|[0m  [38;5;143m|[0m  [38;5;127m|[0m  [38;5;218m|[0m  [38;5;138m|[0m  [38;5;146m|[0m  [38;5;205m|[0m  [38;5;227m|[0m      6169                	addi	sp,sp,208
    80000f86:	[38;5;189m|[0m  [38;5;213m|[0m        [38;5;209m|[0m  [38;5;192m|[0m  [38;5;152m|[0m  [38;5;143m|[0m  [38;5;127m|[0m  [38;5;218m|[0m  [38;5;138m|[0m  [38;5;146m|[0m  [38;5;205m|[0m  [38;5;227m|[0m      8082                	ret
    80000f88:	[38;5;189m|[0m  [38;5;213m|[0m        [38;5;209m|[0m  [38;5;192m|[0m  [38;5;152m\--[38;5;143m|[38;5;152m--[38;5;127m|[38;5;152m--[38;5;218m|[38;5;152m--[38;5;138m|[38;5;152m--[38;5;146m|[38;5;152m--[38;5;205m|[38;5;152m--[38;5;227m|[38;5;152m---->[0m 0405                	addi	s0,s0,1
    80000f8a:	[38;5;189m|[0m  [38;5;213m|[0m        [38;5;209m|[0m  [38;5;192m\-----[38;5;143m|[38;5;192m--[38;5;127m|[38;5;192m--[38;5;218m|[38;5;192m--[38;5;138m|[38;5;192m--[38;5;146m|[38;5;192m--[38;5;205m|[38;5;192m--[38;5;227m|[38;5;192m-----[0m bf11                	j	80000e9e <_vfiprintf_r+0x74>
    80000f8c:	[38;5;189m|[0m  [38;5;213m|[0m        [38;5;209m|[0m        [38;5;143m|[0m  [38;5;127m|[0m  [38;5;218m|[0m  [38;5;138m|[0m  [38;5;146m|[0m  [38;5;205m\[38;5;205m-[38;5;205m-[38;5;227m|[38;5;205m-[38;5;205m-[38;5;205m-[38;5;205m-[38;5;205m>[0m 41650533          	sub	a0,a0,s6
    80000f90:	[38;5;189m|[0m  [38;5;213m|[0m        [38;5;209m|[0m        [38;5;143m|[0m  [38;5;127m|[0m  [38;5;218m|[0m  [38;5;138m|[0m  [38;5;146m|[0m     [38;5;227m|[0m      00ac953b          	sllw	a0,s9,a0
    80000f94:	[38;5;189m|[0m  [38;5;213m|[0m        [38;5;209m|[0m        [38;5;143m|[0m  [38;5;127m|[0m  [38;5;218m|[0m  [38;5;138m|[0m  [38;5;146m|[0m     [38;5;227m|[0m      8fc9                	or	a5,a5,a0
    80000f96:	[38;5;189m|[0m  [38;5;213m|[0m        [38;5;209m|[0m        [38;5;143m|[0m  [38;5;127m|[0m  [38;5;218m|[0m  [38;5;138m|[0m  [38;5;146m|[0m     [38;5;227m|[0m      c83e                	sw	a5,16(sp)
    80000f98:	[38;5;189m|[0m  [38;5;213m|[0m        [38;5;209m|[0m        [38;5;143m|[0m  [38;5;127m|[0m  [38;5;218m|[0m  [38;5;138m|[0m  [38;5;146m|[0m     [38;5;227m|[0m      8922                	mv	s2,s0
    80000f9a:	[38;5;189m|[0m  [38;5;213m|[0m        [38;5;209m|[0m        [38;5;143m|[0m  [38;5;127m|[0m  [38;5;218m|[0m  [38;5;138m|[0m  [38;5;146m\[38;5;146m-[38;5;146m-[38;5;146m-[38;5;146m-[38;5;146m-[38;5;227m|[38;5;146m-[38;5;146m-[38;5;146m-[38;5;146m-[38;5;146m-[0m b791                	j	80000ede <_vfiprintf_r+0xb4>
    80000f9c:	[38;5;189m|[0m  [38;5;213m|[0m        [38;5;209m|[0m        [38;5;143m|[0m  [38;5;127m|[0m  [38;5;218m|[0m  [38;5;138m|[0m        [38;5;227m\---->[0m 6722                	ld	a4,8(sp)
    80000f9e:	[38;5;189m|[0m  [38;5;213m|[0m        [38;5;209m|[0m        [38;5;143m|[0m  [38;5;127m|[0m  [38;5;218m|[0m  [38;5;138m|[0m               00870693          	addi	a3,a4,8
    80000fa2:	[38;5;189m|[0m  [38;5;213m|[0m        [38;5;209m|[0m        [38;5;143m|[0m  [38;5;127m|[0m  [38;5;218m|[0m  [38;5;138m|[0m               4318                	lw	a4,0(a4)
    80000fa4:	[38;5;189m|[0m  [38;5;213m|[0m        [38;5;209m|[0m        [38;5;143m|[0m  [38;5;127m|[0m  [38;5;218m|[0m  [38;5;138m|[0m               e436                	sd	a3,8(sp)
    80000fa6:	[38;5;189m|[0m  [38;5;213m|[0m        [38;5;209m|[0m        [38;5;143m|[0m  [38;5;127m|[0m  [38;5;218m|[0m  [38;5;138m|[0m           [38;5;208m/--[0m 02074b63          	bltz	a4,80000fdc <_vfiprintf_r+0x1b2>
    80000faa:	[38;5;189m|[0m  [38;5;213m|[0m        [38;5;209m|[0m        [38;5;143m|[0m  [38;5;127m|[0m  [38;5;218m|[0m  [38;5;138m|[0m           [38;5;208m|[0m   ce3a                	sw	a4,28(sp)
    80000fac:	[38;5;189m|[0m  [38;5;213m|[0m        [38;5;209m|[0m        [38;5;143m|[0m  [38;5;127m|[0m  [38;5;218m|[0m  [38;5;138m>[38;5;138m-[38;5;138m-[38;5;138m-[38;5;138m-[38;5;138m-[38;5;138m-[38;5;138m-[38;5;138m-[38;5;138m-[38;5;138m-[38;5;138m-[38;5;208m|[38;5;138m-[38;5;138m>[0m 00044703          	lbu	a4,0(s0)
    80000fb0:	[38;5;189m|[0m  [38;5;213m|[0m        [38;5;209m|[0m        [38;5;143m|[0m  [38;5;127m|[0m  [38;5;218m|[0m  [38;5;138m|[0m           [38;5;208m|[0m   02e00793          	li	a5,46
    80000fb4:	[38;5;189m|[0m  [38;5;213m|[0m        [38;5;209m|[0m        [38;5;143m|[0m  [38;5;127m|[0m  [38;5;218m|[0m  [38;5;138m|[0m  [38;5;161m/--------[38;5;208m|[38;5;161m--[0m 06f71163          	bne	a4,a5,80001016 <_vfiprintf_r+0x1ec>
    80000fb8:	[38;5;189m|[0m  [38;5;213m|[0m        [38;5;209m|[0m        [38;5;143m|[0m  [38;5;127m|[0m  [38;5;218m|[0m  [38;5;138m|[0m  [38;5;161m|[0m        [38;5;208m|[0m   00144703          	lbu	a4,1(s0)
    80000fbc:	[38;5;189m|[0m  [38;5;213m|[0m        [38;5;209m|[0m        [38;5;143m|[0m  [38;5;127m|[0m  [38;5;218m|[0m  [38;5;138m|[0m  [38;5;161m|[0m        [38;5;208m|[0m   02a00793          	li	a5,42
    80000fc0:	[38;5;189m|[0m  [38;5;213m|[0m        [38;5;209m|[0m        [38;5;143m|[0m  [38;5;127m|[0m  [38;5;218m|[0m  [38;5;138m|[0m  [38;5;161m|[0m     [38;5;205m/[38;5;205m-[38;5;205m-[38;5;208m|[38;5;205m-[38;5;205m-[0m 02f71b63          	bne	a4,a5,80000ff6 <_vfiprintf_r+0x1cc>
    80000fc4:	[38;5;189m|[0m  [38;5;213m|[0m        [38;5;209m|[0m        [38;5;143m|[0m  [38;5;127m|[0m  [38;5;218m|[0m  [38;5;138m|[0m  [38;5;161m|[0m     [38;5;205m|[0m  [38;5;208m|[0m   67a2                	ld	a5,8(sp)
    80000fc6:	[38;5;189m|[0m  [38;5;213m|[0m        [38;5;209m|[0m        [38;5;143m|[0m  [38;5;127m|[0m  [38;5;218m|[0m  [38;5;138m|[0m  [38;5;161m|[0m     [38;5;205m|[0m  [38;5;208m|[0m   0409                	addi	s0,s0,2
    80000fc8:	[38;5;189m|[0m  [38;5;213m|[0m        [38;5;209m|[0m        [38;5;143m|[0m  [38;5;127m|[0m  [38;5;218m|[0m  [38;5;138m|[0m  [38;5;161m|[0m     [38;5;205m|[0m  [38;5;208m|[0m   00878713          	addi	a4,a5,8
    80000fcc:	[38;5;189m|[0m  [38;5;213m|[0m        [38;5;209m|[0m        [38;5;143m|[0m  [38;5;127m|[0m  [38;5;218m|[0m  [38;5;138m|[0m  [38;5;161m|[0m     [38;5;205m|[0m  [38;5;208m|[0m   e43a                	sd	a4,8(sp)
    80000fce:	[38;5;189m|[0m  [38;5;213m|[0m        [38;5;209m|[0m        [38;5;143m|[0m  [38;5;127m|[0m  [38;5;218m|[0m  [38;5;138m|[0m  [38;5;161m|[0m     [38;5;205m|[0m  [38;5;208m|[0m   4398                	lw	a4,0(a5)
    80000fd0:	[38;5;189m|[0m  [38;5;213m|[0m        [38;5;209m|[0m        [38;5;143m|[0m  [38;5;127m|[0m  [38;5;218m|[0m  [38;5;138m|[0m  [38;5;161m|[0m     [38;5;205m|[0m  [38;5;208m|[0m   87ba                	mv	a5,a4
    80000fd2:	[38;5;189m|[0m  [38;5;213m|[0m        [38;5;209m|[0m        [38;5;143m|[0m  [38;5;127m|[0m  [38;5;218m|[0m  [38;5;138m|[0m  [38;5;161m|[0m  [38;5;154m/[38;5;154m-[38;5;154m-[38;5;205m|[38;5;154m-[38;5;154m-[38;5;208m|[38;5;154m-[38;5;154m-[0m 00075363          	bgez	a4,80000fd8 <_vfiprintf_r+0x1ae>
    80000fd6:	[38;5;189m|[0m  [38;5;213m|[0m        [38;5;209m|[0m        [38;5;143m|[0m  [38;5;127m|[0m  [38;5;218m|[0m  [38;5;138m|[0m  [38;5;161m|[0m  [38;5;154m|[0m  [38;5;205m|[0m  [38;5;208m|[0m   57fd                	li	a5,-1
    80000fd8:	[38;5;189m|[0m  [38;5;213m|[0m        [38;5;209m|[0m        [38;5;143m|[0m  [38;5;127m|[0m  [38;5;218m|[0m  [38;5;138m|[0m  [38;5;161m|[0m  [38;5;154m>[38;5;154m-[38;5;154m-[38;5;205m|[38;5;154m-[38;5;154m-[38;5;208m|[38;5;154m-[38;5;154m>[0m ca3e                	sw	a5,20(sp)
    80000fda:	[38;5;189m|[0m  [38;5;213m|[0m        [38;5;209m|[0m        [38;5;143m|[0m  [38;5;127m|[0m  [38;5;218m|[0m  [38;5;138m|[0m  [38;5;161m+--[38;5;154m|[38;5;161m--[38;5;205m|[38;5;161m--[38;5;208m|[38;5;161m--[0m a835                	j	80001016 <_vfiprintf_r+0x1ec>
    80000fdc:	[38;5;189m|[0m  [38;5;213m|[0m        [38;5;209m|[0m        [38;5;143m|[0m  [38;5;127m|[0m  [38;5;218m|[0m  [38;5;138m|[0m  [38;5;161m|[0m  [38;5;154m|[0m  [38;5;205m|[0m  [38;5;208m\->[0m 40e0073b          	negw	a4,a4
    80000fe0:	[38;5;189m|[0m  [38;5;213m|[0m        [38;5;209m|[0m        [38;5;143m|[0m  [38;5;127m|[0m  [38;5;218m|[0m  [38;5;138m|[0m  [38;5;161m|[0m  [38;5;154m|[0m  [38;5;205m|[0m      0027e793          	ori	a5,a5,2
    80000fe4:	[38;5;189m|[0m  [38;5;213m|[0m        [38;5;209m|[0m        [38;5;143m|[0m  [38;5;127m|[0m  [38;5;218m|[0m  [38;5;138m|[0m  [38;5;161m|[0m  [38;5;154m|[0m  [38;5;205m|[0m      ce3a                	sw	a4,28(sp)
    80000fe6:	[38;5;189m|[0m  [38;5;213m|[0m        [38;5;209m|[0m        [38;5;143m|[0m  [38;5;127m|[0m  [38;5;218m|[0m  [38;5;138m|[0m  [38;5;161m|[0m  [38;5;154m|[0m  [38;5;205m|[0m      c83e                	sw	a5,16(sp)
    80000fe8:	[38;5;189m|[0m  [38;5;213m|[0m        [38;5;209m|[0m        [38;5;143m|[0m  [38;5;127m|[0m  [38;5;218m|[0m  [38;5;138m\[38;5;138m-[38;5;138m-[38;5;161m|[38;5;138m-[38;5;138m-[38;5;154m|[38;5;138m-[38;5;138m-[38;5;205m|[38;5;138m-[38;5;138m-[38;5;138m-[38;5;138m-[38;5;138m-[0m b7d1                	j	80000fac <_vfiprintf_r+0x182>
    80000fea:	[38;5;189m|[0m  [38;5;213m|[0m        [38;5;209m|[0m        [38;5;143m|[0m  [38;5;127m|[0m  [38;5;218m\[38;5;218m-[38;5;218m-[38;5;218m-[38;5;218m-[38;5;218m-[38;5;161m|[38;5;218m-[38;5;218m-[38;5;154m|[38;5;218m-[38;5;218m-[38;5;205m|[38;5;218m-[38;5;218m-[38;5;218m-[38;5;218m-[38;5;218m>[0m 02f807bb          	mulw	a5,a6,a5
    80000fee:	[38;5;189m|[0m  [38;5;213m|[0m        [38;5;209m|[0m        [38;5;143m|[0m  [38;5;127m|[0m        [38;5;161m|[0m  [38;5;154m|[0m  [38;5;205m|[0m      842a                	mv	s0,a0
    80000ff0:	[38;5;189m|[0m  [38;5;213m|[0m        [38;5;209m|[0m        [38;5;143m|[0m  [38;5;127m|[0m        [38;5;161m|[0m  [38;5;154m|[0m  [38;5;205m|[0m      4685                	li	a3,1
    80000ff2:	[38;5;189m|[0m  [38;5;213m|[0m        [38;5;209m|[0m        [38;5;143m|[0m  [38;5;127m|[0m        [38;5;161m|[0m  [38;5;154m|[0m  [38;5;205m|[0m      9fb9                	addw	a5,a5,a4
    80000ff4:	[38;5;189m|[0m  [38;5;213m|[0m        [38;5;209m|[0m        [38;5;143m|[0m  [38;5;127m\--------[38;5;161m|[38;5;127m--[38;5;154m|[38;5;127m--[38;5;205m|[38;5;127m-----[0m bf05                	j	80000f24 <_vfiprintf_r+0xfa>
    80000ff6:	[38;5;189m|[0m  [38;5;213m|[0m        [38;5;209m|[0m        [38;5;143m|[0m           [38;5;161m|[0m  [38;5;154m|[0m  [38;5;205m\[38;5;205m-[38;5;205m-[38;5;205m-[38;5;205m-[38;5;205m>[0m 0405                	addi	s0,s0,1
    80000ff8:	[38;5;189m|[0m  [38;5;213m|[0m        [38;5;209m|[0m        [38;5;143m|[0m           [38;5;161m|[0m  [38;5;154m|[0m         ca02                	sw	zero,20(sp)
    80000ffa:	[38;5;189m|[0m  [38;5;213m|[0m        [38;5;209m|[0m        [38;5;143m|[0m           [38;5;161m|[0m  [38;5;154m|[0m         4681                	li	a3,0
    80000ffc:	[38;5;189m|[0m  [38;5;213m|[0m        [38;5;209m|[0m        [38;5;143m|[0m           [38;5;161m|[0m  [38;5;154m|[0m         4781                	li	a5,0
    80000ffe:	[38;5;189m|[0m  [38;5;213m|[0m        [38;5;209m|[0m        [38;5;143m|[0m           [38;5;161m|[0m  [38;5;154m|[0m         4625                	li	a2,9
    80001000:	[38;5;189m|[0m  [38;5;213m|[0m        [38;5;209m|[0m        [38;5;143m|[0m           [38;5;161m|[0m  [38;5;154m|[0m         4829                	li	a6,10
    80001002:	[38;5;189m|[0m  [38;5;213m|[0m        [38;5;209m|[0m        [38;5;143m|[0m     [38;5;185m/-----[38;5;161m|[38;5;185m--[38;5;154m|[38;5;185m------->[0m 00044703          	lbu	a4,0(s0)
    80001006:	[38;5;189m|[0m  [38;5;213m|[0m        [38;5;209m|[0m        [38;5;143m|[0m     [38;5;185m|[0m     [38;5;161m|[0m  [38;5;154m|[0m         00140513          	addi	a0,s0,1
    8000100a:	[38;5;189m|[0m  [38;5;213m|[0m        [38;5;209m|[0m        [38;5;143m|[0m     [38;5;185m|[0m     [38;5;161m|[0m  [38;5;154m|[0m         fd07059b          	addiw	a1,a4,-48
    8000100e:	[38;5;189m|[0m  [38;5;213m|[0m        [38;5;209m|[0m        [38;5;143m|[0m     [38;5;185m|[0m     [38;5;161m|[0m  [38;5;154m|[0m         872e                	mv	a4,a1
    80001010:	[38;5;189m|[0m  [38;5;213m|[0m        [38;5;209m|[0m        [38;5;143m|[0m     [38;5;185m|[0m  [38;5;201m/--[38;5;161m|[38;5;201m--[38;5;154m|[38;5;201m--------[0m 06b67c63          	bgeu	a2,a1,80001088 <_vfiprintf_r+0x25e>
    80001014:	[38;5;189m|[0m  [38;5;213m|[0m        [38;5;209m|[0m        [38;5;143m|[0m     [38;5;185m|[0m  [38;5;201m|[0m  [38;5;161m|[0m  [38;5;154m\[38;5;154m-[38;5;154m-[38;5;154m-[38;5;154m-[38;5;154m-[38;5;154m-[38;5;154m-[38;5;154m-[0m f2f1                	bnez	a3,80000fd8 <_vfiprintf_r+0x1ae>
    80001016:	[38;5;189m|[0m  [38;5;213m|[0m        [38;5;209m|[0m        [38;5;143m|[0m     [38;5;185m|[0m  [38;5;201m|[0m  [38;5;161m\---------->[0m 00044583          	lbu	a1,0(s0)
    8000101a:	[38;5;189m|[0m  [38;5;213m|[0m        [38;5;209m|[0m        [38;5;143m|[0m     [38;5;185m|[0m  [38;5;201m|[0m               460d                	li	a2,3
    8000101c:	[38;5;189m|[0m  [38;5;213m|[0m        [38;5;209m|[0m        [38;5;143m|[0m     [38;5;185m|[0m  [38;5;201m|[0m               00001517          	auipc	a0,0x1
    80001020:	[38;5;189m|[0m  [38;5;213m|[0m        [38;5;209m|[0m        [38;5;143m|[0m     [38;5;185m|[0m  [38;5;201m|[0m               6f450513          	addi	a0,a0,1780 # 80002710 <__sf_fake_stdin+0x40>
    80001024:	[38;5;189m|[0m  [38;5;213m|[0m        [38;5;209m|[0m        [38;5;143m|[0m     [38;5;185m|[0m  [38;5;201m|[0m               1a5000ef          	jal	ra,800019c8 <memchr>
    80001028:	[38;5;189m|[0m  [38;5;213m|[0m        [38;5;209m|[0m        [38;5;143m|[0m     [38;5;185m|[0m  [38;5;201m|[0m           [38;5;208m/--[0m cd11                	beqz	a0,80001044 <_vfiprintf_r+0x21a>
    8000102a:	[38;5;189m|[0m  [38;5;213m|[0m        [38;5;209m|[0m        [38;5;143m|[0m     [38;5;185m|[0m  [38;5;201m|[0m           [38;5;208m|[0m   00001797          	auipc	a5,0x1
    8000102e:	[38;5;189m|[0m  [38;5;213m|[0m        [38;5;209m|[0m        [38;5;143m|[0m     [38;5;185m|[0m  [38;5;201m|[0m           [38;5;208m|[0m   6e678793          	addi	a5,a5,1766 # 80002710 <__sf_fake_stdin+0x40>
    80001032:	[38;5;189m|[0m  [38;5;213m|[0m        [38;5;209m|[0m        [38;5;143m|[0m     [38;5;185m|[0m  [38;5;201m|[0m           [38;5;208m|[0m   8d1d                	sub	a0,a0,a5
    80001034:	[38;5;189m|[0m  [38;5;213m|[0m        [38;5;209m|[0m        [38;5;143m|[0m     [38;5;185m|[0m  [38;5;201m|[0m           [38;5;208m|[0m   47c2                	lw	a5,16(sp)
    80001036:	[38;5;189m|[0m  [38;5;213m|[0m        [38;5;209m|[0m        [38;5;143m|[0m     [38;5;185m|[0m  [38;5;201m|[0m           [38;5;208m|[0m   04000713          	li	a4,64
    8000103a:	[38;5;189m|[0m  [38;5;213m|[0m        [38;5;209m|[0m        [38;5;143m|[0m     [38;5;185m|[0m  [38;5;201m|[0m           [38;5;208m|[0m   00a7173b          	sllw	a4,a4,a0
    8000103e:	[38;5;189m|[0m  [38;5;213m|[0m        [38;5;209m|[0m        [38;5;143m|[0m     [38;5;185m|[0m  [38;5;201m|[0m           [38;5;208m|[0m   8fd9                	or	a5,a5,a4
    80001040:	[38;5;189m|[0m  [38;5;213m|[0m        [38;5;209m|[0m        [38;5;143m|[0m     [38;5;185m|[0m  [38;5;201m|[0m           [38;5;208m|[0m   0405                	addi	s0,s0,1
    80001042:	[38;5;189m|[0m  [38;5;213m|[0m        [38;5;209m|[0m        [38;5;143m|[0m     [38;5;185m|[0m  [38;5;201m|[0m           [38;5;208m|[0m   c83e                	sw	a5,16(sp)
    80001044:	[38;5;189m|[0m  [38;5;213m|[0m        [38;5;209m|[0m        [38;5;143m|[0m     [38;5;185m|[0m  [38;5;201m|[0m           [38;5;208m\->[0m 00044583          	lbu	a1,0(s0)
    80001048:	[38;5;189m|[0m  [38;5;213m|[0m        [38;5;209m|[0m        [38;5;143m|[0m     [38;5;185m|[0m  [38;5;201m|[0m               4619                	li	a2,6
    8000104a:	[38;5;189m|[0m  [38;5;213m|[0m        [38;5;209m|[0m        [38;5;143m|[0m     [38;5;185m|[0m  [38;5;201m|[0m               00001517          	auipc	a0,0x1
    8000104e:	[38;5;189m|[0m  [38;5;213m|[0m        [38;5;209m|[0m        [38;5;143m|[0m     [38;5;185m|[0m  [38;5;201m|[0m               6ce50513          	addi	a0,a0,1742 # 80002718 <__sf_fake_stdin+0x48>
    80001052:	[38;5;189m|[0m  [38;5;213m|[0m        [38;5;209m|[0m        [38;5;143m|[0m     [38;5;185m|[0m  [38;5;201m|[0m               00140913          	addi	s2,s0,1
    80001056:	[38;5;189m|[0m  [38;5;213m|[0m        [38;5;209m|[0m        [38;5;143m|[0m     [38;5;185m|[0m  [38;5;201m|[0m               02b10423          	sb	a1,40(sp)
    8000105a:	[38;5;189m|[0m  [38;5;213m|[0m        [38;5;209m|[0m        [38;5;143m|[0m     [38;5;185m|[0m  [38;5;201m|[0m               16f000ef          	jal	ra,800019c8 <memchr>
    8000105e:	[38;5;189m|[0m  [38;5;213m|[0m        [38;5;209m|[0m        [38;5;143m|[0m     [38;5;185m|[0m  [38;5;201m|[0m  [38;5;227m/[38;5;227m-[38;5;227m-[38;5;227m-[38;5;227m-[38;5;227m-[38;5;227m-[38;5;227m-[38;5;227m-[38;5;227m-[38;5;227m-[38;5;227m-[0m c135                	beqz	a0,800010c2 <_vfiprintf_r+0x298>
    80001060:	[38;5;189m|[0m  [38;5;213m|[0m        [38;5;209m|[0m        [38;5;143m|[0m     [38;5;185m|[0m  [38;5;201m|[0m  [38;5;227m|[0m            00000793          	li	a5,0
    80001064:	[38;5;189m|[0m  [38;5;213m|[0m        [38;5;209m|[0m        [38;5;143m|[0m     [38;5;185m|[0m  [38;5;201m|[0m  [38;5;227m|[0m     [38;5;211m/[38;5;211m-[38;5;211m-[38;5;211m-[38;5;211m-[38;5;211m-[0m eb85                	bnez	a5,80001094 <_vfiprintf_r+0x26a>
    80001066:	[38;5;189m|[0m  [38;5;213m|[0m        [38;5;209m|[0m        [38;5;143m|[0m     [38;5;185m|[0m  [38;5;201m|[0m  [38;5;227m|[0m     [38;5;211m|[0m      4742                	lw	a4,16(sp)
    80001068:	[38;5;189m|[0m  [38;5;213m|[0m        [38;5;209m|[0m        [38;5;143m|[0m     [38;5;185m|[0m  [38;5;201m|[0m  [38;5;227m|[0m     [38;5;211m|[0m      67a2                	ld	a5,8(sp)
    8000106a:	[38;5;189m|[0m  [38;5;213m|[0m        [38;5;209m|[0m        [38;5;143m|[0m     [38;5;185m|[0m  [38;5;201m|[0m  [38;5;227m|[0m     [38;5;211m|[0m      10077713          	andi	a4,a4,256
    8000106e:	[38;5;189m|[0m  [38;5;213m|[0m        [38;5;209m|[0m        [38;5;143m|[0m     [38;5;185m|[0m  [38;5;201m|[0m  [38;5;227m|[0m     [38;5;211m|[0m      00878693          	addi	a3,a5,8
    80001072:	[38;5;189m|[0m  [38;5;213m|[0m        [38;5;209m|[0m        [38;5;143m|[0m     [38;5;185m|[0m  [38;5;201m|[0m  [38;5;227m|[0m     [38;5;211m|[0m  [38;5;163m/[38;5;163m-[38;5;163m-[0m c709                	beqz	a4,8000107c <_vfiprintf_r+0x252>
    80001074:	[38;5;189m|[0m  [38;5;213m|[0m        [38;5;209m|[0m        [38;5;143m|[0m     [38;5;185m|[0m  [38;5;201m|[0m  [38;5;227m|[0m     [38;5;211m|[0m  [38;5;163m|[0m   07bd                	addi	a5,a5,15
    80001076:	[38;5;189m|[0m  [38;5;213m|[0m        [38;5;209m|[0m        [38;5;143m|[0m     [38;5;185m|[0m  [38;5;201m|[0m  [38;5;227m|[0m     [38;5;211m|[0m  [38;5;163m|[0m   9bc1                	andi	a5,a5,-16
    80001078:	[38;5;189m|[0m  [38;5;213m|[0m        [38;5;209m|[0m        [38;5;143m|[0m     [38;5;185m|[0m  [38;5;201m|[0m  [38;5;227m|[0m     [38;5;211m|[0m  [38;5;163m|[0m   01078693          	addi	a3,a5,16
    8000107c:	[38;5;189m|[0m  [38;5;213m|[0m        [38;5;209m|[0m        [38;5;143m|[0m     [38;5;185m|[0m  [38;5;201m|[0m  [38;5;227m|[0m     [38;5;211m|[0m  [38;5;163m\[38;5;163m-[38;5;163m>[0m e436                	sd	a3,8(sp)
    8000107e:	[38;5;189m|[0m  [38;5;213m|[0m        [38;5;209m|[0m        [38;5;143m|[0m     [38;5;185m|[0m  [38;5;201m|[0m  [38;5;227m|[0m  [38;5;138m/--[38;5;211m|[38;5;138m---->[0m 5792                	lw	a5,36(sp)
    80001080:	[38;5;189m|[0m  [38;5;213m|[0m        [38;5;209m|[0m        [38;5;143m|[0m     [38;5;185m|[0m  [38;5;201m|[0m  [38;5;227m|[0m  [38;5;138m|[0m  [38;5;211m|[0m      014787bb          	addw	a5,a5,s4
    80001084:	[38;5;189m|[0m  [38;5;213m|[0m        [38;5;209m|[0m        [38;5;143m|[0m     [38;5;185m|[0m  [38;5;201m|[0m  [38;5;227m|[0m  [38;5;138m|[0m  [38;5;211m|[0m      d23e                	sw	a5,36(sp)
    80001086:	[38;5;189m|[0m  [38;5;213m\[38;5;213m-[38;5;213m-[38;5;213m-[38;5;213m-[38;5;213m-[38;5;213m-[38;5;213m-[38;5;213m-[38;5;209m|[38;5;213m-[38;5;213m-[38;5;213m-[38;5;213m-[38;5;213m-[38;5;213m-[38;5;213m-[38;5;213m-[38;5;143m|[38;5;213m-[38;5;213m-[38;5;213m-[38;5;213m-[38;5;213m-[38;5;185m|[38;5;213m-[38;5;213m-[38;5;201m|[38;5;213m-[38;5;213m-[38;5;227m|[38;5;213m-[38;5;213m-[38;5;138m|[38;5;213m-[38;5;213m-[38;5;211m|[38;5;213m-[38;5;213m-[38;5;213m-[38;5;213m-[38;5;213m-[0m bd19                	j	80000e9c <_vfiprintf_r+0x72>
    80001088:	[38;5;189m|[0m           [38;5;209m|[0m        [38;5;143m|[0m     [38;5;185m|[0m  [38;5;201m\--[38;5;227m|[38;5;201m--[38;5;138m|[38;5;201m--[38;5;211m|[38;5;201m---->[0m 02f807bb          	mulw	a5,a6,a5
    8000108c:	[38;5;189m|[0m           [38;5;209m|[0m        [38;5;143m|[0m     [38;5;185m|[0m     [38;5;227m|[0m  [38;5;138m|[0m  [38;5;211m|[0m      842a                	mv	s0,a0
    8000108e:	[38;5;189m|[0m           [38;5;209m|[0m        [38;5;143m|[0m     [38;5;185m|[0m     [38;5;227m|[0m  [38;5;138m|[0m  [38;5;211m|[0m      4685                	li	a3,1
    80001090:	[38;5;189m|[0m           [38;5;209m|[0m        [38;5;143m|[0m     [38;5;185m|[0m     [38;5;227m|[0m  [38;5;138m|[0m  [38;5;211m|[0m      9fb9                	addw	a5,a5,a4
    80001092:	[38;5;189m|[0m           [38;5;209m|[0m        [38;5;143m|[0m     [38;5;185m\-----[38;5;227m|[38;5;185m--[38;5;138m|[38;5;185m--[38;5;211m|[38;5;185m-----[0m bf85                	j	80001002 <_vfiprintf_r+0x1d8>
    80001094:	[38;5;189m|[0m           [38;5;209m|[0m        [38;5;143m|[0m           [38;5;227m|[0m  [38;5;138m|[0m  [38;5;211m\[38;5;211m-[38;5;211m-[38;5;211m-[38;5;211m-[38;5;211m>[0m 0038                	addi	a4,sp,8
    80001096:	[38;5;189m|[0m           [38;5;209m|[0m        [38;5;143m|[0m           [38;5;227m|[0m  [38;5;138m|[0m         00000697          	auipc	a3,0x0
    8000109a:	[38;5;189m|[0m           [38;5;209m|[0m        [38;5;143m|[0m           [38;5;227m|[0m  [38;5;138m|[0m         d2c68693          	addi	a3,a3,-724 # 80000dc2 <__sfputs_r>
    8000109e:	[38;5;189m|[0m           [38;5;209m|[0m        [38;5;143m|[0m           [38;5;227m|[0m  [38;5;138m|[0m         8626                	mv	a2,s1
    800010a0:	[38;5;189m|[0m           [38;5;209m|[0m        [38;5;143m|[0m           [38;5;227m|[0m  [38;5;138m|[0m         080c                	addi	a1,sp,16
    800010a2:	[38;5;189m|[0m           [38;5;209m|[0m        [38;5;143m|[0m           [38;5;227m|[0m  [38;5;138m|[0m         854e                	mv	a0,s3
    800010a4:	[38;5;189m|[0m           [38;5;209m|[0m        [38;5;143m|[0m           [38;5;227m|[0m  [38;5;138m|[0m         00000097          	auipc	ra,0x0
    800010a8:	[38;5;189m|[0m           [38;5;209m|[0m        [38;5;143m|[0m           [38;5;227m|[0m  [38;5;138m|[0m         000000e7          	jalr	zero # 0 <__boot_hart>
    800010ac:	[38;5;189m|[0m           [38;5;209m|[0m        [38;5;143m|[0m           [38;5;227m|[0m  [38;5;138m|[0m     [38;5;144m/->[0m 8a2a                	mv	s4,a0
    800010ae:	[38;5;189m|[0m           [38;5;209m|[0m        [38;5;143m|[0m           [38;5;227m|[0m  [38;5;138m\-----[38;5;144m|[38;5;138m--[0m fd5518e3          	bne	a0,s5,8000107e <_vfiprintf_r+0x254>
    800010b2:	[38;5;189m\[38;5;189m-[38;5;189m-[38;5;189m-[38;5;189m-[38;5;189m-[38;5;189m-[38;5;189m-[38;5;189m-[38;5;189m-[38;5;189m-[38;5;189m-[38;5;209m|[38;5;189m-[38;5;189m-[38;5;189m-[38;5;189m-[38;5;189m-[38;5;189m-[38;5;189m-[38;5;189m-[38;5;143m|[38;5;189m-[38;5;189m-[38;5;189m-[38;5;189m-[38;5;189m-[38;5;189m-[38;5;189m-[38;5;189m-[38;5;189m-[38;5;189m-[38;5;189m-[38;5;227m|[38;5;189m-[38;5;189m-[38;5;189m-[38;5;189m-[38;5;189m-[38;5;189m-[38;5;189m-[38;5;189m-[38;5;144m|[38;5;189m-[38;5;189m>[0m 0104d783          	lhu	a5,16(s1)
    800010b6:	            [38;5;209m|[0m        [38;5;143m|[0m           [38;5;227m|[0m        [38;5;144m|[0m   0407f793          	andi	a5,a5,64
    800010ba:	            [38;5;209m|[0m        [38;5;143m\-----------[38;5;227m|[38;5;143m--------[38;5;144m|[38;5;143m--[0m ea0798e3          	bnez	a5,80000f6a <_vfiprintf_r+0x140>
    800010be:	            [38;5;209m|[0m                    [38;5;227m|[0m        [38;5;144m|[0m   5512                	lw	a0,36(sp)
    800010c0:	            [38;5;209m\[38;5;209m-[38;5;209m-[38;5;209m-[38;5;209m-[38;5;209m-[38;5;209m-[38;5;209m-[38;5;209m-[38;5;209m-[38;5;209m-[38;5;209m-[38;5;209m-[38;5;209m-[38;5;209m-[38;5;209m-[38;5;209m-[38;5;209m-[38;5;209m-[38;5;209m-[38;5;209m-[38;5;227m|[38;5;209m-[38;5;209m-[38;5;209m-[38;5;209m-[38;5;209m-[38;5;209m-[38;5;209m-[38;5;209m-[38;5;144m|[38;5;209m-[38;5;209m-[0m b575                	j	80000f6c <_vfiprintf_r+0x142>
    800010c2:	                                 [38;5;227m\[38;5;227m-[38;5;227m-[38;5;227m-[38;5;227m-[38;5;227m-[38;5;227m-[38;5;227m-[38;5;227m-[38;5;144m|[38;5;227m-[38;5;227m>[0m 0038                	addi	a4,sp,8
    800010c4:	                                          [38;5;144m|[0m   00000697          	auipc	a3,0x0
    800010c8:	                                          [38;5;144m|[0m   cfe68693          	addi	a3,a3,-770 # 80000dc2 <__sfputs_r>
    800010cc:	                                          [38;5;144m|[0m   8626                	mv	a2,s1
    800010ce:	                                          [38;5;144m|[0m   080c                	addi	a1,sp,16
    800010d0:	                                          [38;5;144m|[0m   854e                	mv	a0,s3
    800010d2:	                                          [38;5;144m|[0m   38d000ef          	jal	ra,80001c5e <_printf_i>
    800010d6:	                                          [38;5;144m\--[0m bfd9                	j	800010ac <_vfiprintf_r+0x282>

00000000800010d8 <vfiprintf>:
    800010d8:	86b2                	mv	a3,a2
    800010da:	862e                	mv	a2,a1
    800010dc:	85aa                	mv	a1,a0
    800010de:	00001517          	auipc	a0,0x1
    800010e2:	7e253503          	ld	a0,2018(a0) # 800028c0 <_impure_ptr>
    800010e6:	b391                	j	80000e2a <_vfiprintf_r>

00000000800010e8 <_sbrk_r>:
    800010e8:	    1141                	addi	sp,sp,-16
    800010ea:	    e022                	sd	s0,0(sp)
    800010ec:	    842a                	mv	s0,a0
    800010ee:	    852e                	mv	a0,a1
    800010f0:	    8601a823          	sw	zero,-1936(gp) # 80002930 <errno>
    800010f4:	    e406                	sd	ra,8(sp)
    800010f6:	    7f5000ef          	jal	ra,800020ea <_sbrk>
    800010fa:	    57fd                	li	a5,-1
    800010fc:	[38;5;186m/--[0m 00f51663          	bne	a0,a5,80001108 <_sbrk_r+0x20>
    80001100:	[38;5;186m|[0m   8701a783          	lw	a5,-1936(gp) # 80002930 <errno>
    80001104:	[38;5;186m+--[0m c391                	beqz	a5,80001108 <_sbrk_r+0x20>
    80001106:	[38;5;186m|[0m   c01c                	sw	a5,0(s0)
    80001108:	[38;5;186m\->[0m 60a2                	ld	ra,8(sp)
    8000110a:	    6402                	ld	s0,0(sp)
    8000110c:	    0141                	addi	sp,sp,16
    8000110e:	    8082                	ret

0000000080001110 <__sread>:
    80001110:	       1141                	addi	sp,sp,-16
    80001112:	       e022                	sd	s0,0(sp)
    80001114:	       842e                	mv	s0,a1
    80001116:	       01259583          	lh	a1,18(a1)
    8000111a:	       e406                	sd	ra,8(sp)
    8000111c:	       5e3000ef          	jal	ra,80001efe <_read_r>
    80001120:	   [38;5;206m/[38;5;206m-[38;5;206m-[0m 00054963          	bltz	a0,80001132 <__sread+0x22>
    80001124:	   [38;5;206m|[0m   6c5c                	ld	a5,152(s0)
    80001126:	   [38;5;206m|[0m   97aa                	add	a5,a5,a0
    80001128:	   [38;5;206m|[0m   ec5c                	sd	a5,152(s0)
    8000112a:	[38;5;146m/[38;5;146m-[38;5;146m-[38;5;206m|[38;5;146m-[38;5;146m>[0m 60a2                	ld	ra,8(sp)
    8000112c:	[38;5;146m|[0m  [38;5;206m|[0m   6402                	ld	s0,0(sp)
    8000112e:	[38;5;146m|[0m  [38;5;206m|[0m   0141                	addi	sp,sp,16
    80001130:	[38;5;146m|[0m  [38;5;206m|[0m   8082                	ret
    80001132:	[38;5;146m|[0m  [38;5;206m\[38;5;206m-[38;5;206m>[0m 01045783          	lhu	a5,16(s0)
    80001136:	[38;5;146m|[0m      777d                	lui	a4,0xfffff
    80001138:	[38;5;146m|[0m      177d                	addi	a4,a4,-1 # ffffffffffffefff <__heap_end+0xffffffff7ffdbfff>
    8000113a:	[38;5;146m|[0m      8ff9                	and	a5,a5,a4
    8000113c:	[38;5;146m|[0m      00f41823          	sh	a5,16(s0)
    80001140:	[38;5;146m\[38;5;146m-[38;5;146m-[38;5;146m-[38;5;146m-[38;5;146m-[0m b7ed                	j	8000112a <__sread+0x1a>

0000000080001142 <__seofread>:
    80001142:	4501                	li	a0,0
    80001144:	8082                	ret

0000000080001146 <__swrite>:
    80001146:	    0105d783          	lhu	a5,16(a1)
    8000114a:	    7179                	addi	sp,sp,-48
    8000114c:	    f022                	sd	s0,32(sp)
    8000114e:	    ec26                	sd	s1,24(sp)
    80001150:	    e84a                	sd	s2,16(sp)
    80001152:	    e44e                	sd	s3,8(sp)
    80001154:	    f406                	sd	ra,40(sp)
    80001156:	    1007f793          	andi	a5,a5,256
    8000115a:	    84aa                	mv	s1,a0
    8000115c:	    842e                	mv	s0,a1
    8000115e:	    8932                	mv	s2,a2
    80001160:	    89b6                	mv	s3,a3
    80001162:	[38;5;190m/--[0m c799                	beqz	a5,80001170 <__swrite+0x2a>
    80001164:	[38;5;190m|[0m   01259583          	lh	a1,18(a1)
    80001168:	[38;5;190m|[0m   4689                	li	a3,2
    8000116a:	[38;5;190m|[0m   4601                	li	a2,0
    8000116c:	[38;5;190m|[0m   72c000ef          	jal	ra,80001898 <_lseek_r>
    80001170:	[38;5;190m\->[0m 01045783          	lhu	a5,16(s0)
    80001174:	    777d                	lui	a4,0xfffff
    80001176:	    177d                	addi	a4,a4,-1 # ffffffffffffefff <__heap_end+0xffffffff7ffdbfff>
    80001178:	    8ff9                	and	a5,a5,a4
    8000117a:	    01241583          	lh	a1,18(s0)
    8000117e:	    00f41823          	sh	a5,16(s0)
    80001182:	    7402                	ld	s0,32(sp)
    80001184:	    70a2                	ld	ra,40(sp)
    80001186:	    86ce                	mv	a3,s3
    80001188:	    864a                	mv	a2,s2
    8000118a:	    69a2                	ld	s3,8(sp)
    8000118c:	    6942                	ld	s2,16(sp)
    8000118e:	    8526                	mv	a0,s1
    80001190:	    64e2                	ld	s1,24(sp)
    80001192:	    6145                	addi	sp,sp,48
    80001194:	    aa11                	j	800012a8 <_write_r>

0000000080001196 <__sseek>:
    80001196:	       1141                	addi	sp,sp,-16
    80001198:	       e022                	sd	s0,0(sp)
    8000119a:	       842e                	mv	s0,a1
    8000119c:	       01259583          	lh	a1,18(a1)
    800011a0:	       e406                	sd	ra,8(sp)
    800011a2:	       6f6000ef          	jal	ra,80001898 <_lseek_r>
    800011a6:	       577d                	li	a4,-1
    800011a8:	       01045783          	lhu	a5,16(s0)
    800011ac:	[38;5;176m/[38;5;176m-[38;5;176m-[38;5;176m-[38;5;176m-[38;5;176m-[0m 00e51b63          	bne	a0,a4,800011c2 <__sseek+0x2c>
    800011b0:	[38;5;176m|[0m      777d                	lui	a4,0xfffff
    800011b2:	[38;5;176m|[0m      177d                	addi	a4,a4,-1 # ffffffffffffefff <__heap_end+0xffffffff7ffdbfff>
    800011b4:	[38;5;176m|[0m      8ff9                	and	a5,a5,a4
    800011b6:	[38;5;176m|[0m      00f41823          	sh	a5,16(s0)
    800011ba:	[38;5;176m|[0m  [38;5;144m/->[0m 60a2                	ld	ra,8(sp)
    800011bc:	[38;5;176m|[0m  [38;5;144m|[0m   6402                	ld	s0,0(sp)
    800011be:	[38;5;176m|[0m  [38;5;144m|[0m   0141                	addi	sp,sp,16
    800011c0:	[38;5;176m|[0m  [38;5;144m|[0m   8082                	ret
    800011c2:	[38;5;176m\[38;5;176m-[38;5;176m-[38;5;144m|[38;5;176m-[38;5;176m>[0m 6705                	lui	a4,0x1
    800011c4:	   [38;5;144m|[0m   8fd9                	or	a5,a5,a4
    800011c6:	   [38;5;144m|[0m   00f41823          	sh	a5,16(s0)
    800011ca:	   [38;5;144m|[0m   ec48                	sd	a0,152(s0)
    800011cc:	   [38;5;144m\--[0m b7fd                	j	800011ba <__sseek+0x24>

00000000800011ce <__sclose>:
    800011ce:	01259583          	lh	a1,18(a1)
    800011d2:	a419                	j	800013d8 <_close_r>

00000000800011d4 <__swbuf_r>:
    800011d4:	                   7179                	addi	sp,sp,-48
    800011d6:	                   f022                	sd	s0,32(sp)
    800011d8:	                   ec26                	sd	s1,24(sp)
    800011da:	                   e84a                	sd	s2,16(sp)
    800011dc:	                   f406                	sd	ra,40(sp)
    800011de:	                   e44e                	sd	s3,8(sp)
    800011e0:	                   84aa                	mv	s1,a0
    800011e2:	                   892e                	mv	s2,a1
    800011e4:	                   8432                	mv	s0,a2
    800011e6:	               [38;5;131m/[38;5;131m-[38;5;131m-[0m c509                	beqz	a0,800011f0 <__swbuf_r+0x1c>
    800011e8:	               [38;5;131m|[0m   591c                	lw	a5,48(a0)
    800011ea:	               [38;5;131m+[38;5;131m-[38;5;131m-[0m e399                	bnez	a5,800011f0 <__swbuf_r+0x1c>
    800011ec:	               [38;5;131m|[0m   8afff0ef          	jal	ra,80000a9a <__sinit>
    800011f0:	               [38;5;131m\[38;5;131m-[38;5;131m>[0m 00001797          	auipc	a5,0x1
    800011f4:	                   4e078793          	addi	a5,a5,1248 # 800026d0 <__sf_fake_stdin>
    800011f8:	            [38;5;221m/-----[0m 02f41963          	bne	s0,a5,8000122a <__swbuf_r+0x56>
    800011fc:	            [38;5;221m|[0m      6480                	ld	s0,8(s1)
    800011fe:	      [38;5;193m/[38;5;193m-[38;5;193m-[38;5;193m-[38;5;193m-[38;5;193m-[38;5;221m|[38;5;193m-[38;5;193m-[38;5;193m-[38;5;193m-[38;5;193m>[0m 541c                	lw	a5,40(s0)
    80001200:	      [38;5;193m|[0m     [38;5;221m|[0m      c45c                	sw	a5,12(s0)
    80001202:	      [38;5;193m|[0m     [38;5;221m|[0m      01045783          	lhu	a5,16(s0)
    80001206:	      [38;5;193m|[0m     [38;5;221m|[0m      8ba1                	andi	a5,a5,8
    80001208:	      [38;5;193m|[0m     [38;5;221m|[0m  [38;5;145m/[38;5;145m-[38;5;145m-[0m c399                	beqz	a5,8000120e <__swbuf_r+0x3a>
    8000120a:	      [38;5;193m|[0m     [38;5;221m|[0m  [38;5;145m|[0m   6c1c                	ld	a5,24(s0)
    8000120c:	      [38;5;193m|[0m  [38;5;145m/[38;5;145m-[38;5;145m-[38;5;221m|[38;5;145m-[38;5;145m-[38;5;145m|[38;5;145m-[38;5;145m-[0m ef9d                	bnez	a5,8000124a <__swbuf_r+0x76>
    8000120e:	      [38;5;193m|[0m  [38;5;145m|[0m  [38;5;221m|[0m  [38;5;145m\[38;5;145m-[38;5;145m>[0m 85a2                	mv	a1,s0
    80001210:	      [38;5;193m|[0m  [38;5;145m|[0m  [38;5;221m|[0m      8526                	mv	a0,s1
    80001212:	      [38;5;193m|[0m  [38;5;145m|[0m  [38;5;221m|[0m      0c2000ef          	jal	ra,800012d4 <__swsetup_r>
    80001216:	      [38;5;193m|[0m  [38;5;145m+[38;5;145m-[38;5;145m-[38;5;221m|[38;5;145m-[38;5;145m-[38;5;145m-[38;5;145m-[38;5;145m-[0m c915                	beqz	a0,8000124a <__swbuf_r+0x76>
    80001218:	[38;5;188m/[38;5;188m-[38;5;188m-[38;5;188m-[38;5;188m-[38;5;188m-[38;5;193m|[38;5;188m-[38;5;188m-[38;5;145m|[38;5;188m-[38;5;188m-[38;5;221m|[38;5;188m-[38;5;188m-[38;5;188m-[38;5;188m-[38;5;188m>[0m 597d                	li	s2,-1
    8000121a:	[38;5;188m|[0m  [38;5;144m/--[38;5;193m|[38;5;144m--[38;5;145m|[38;5;144m--[38;5;221m|[38;5;144m---->[0m 70a2                	ld	ra,40(sp)
    8000121c:	[38;5;188m|[0m  [38;5;144m|[0m  [38;5;193m|[0m  [38;5;145m|[0m  [38;5;221m|[0m      7402                	ld	s0,32(sp)
    8000121e:	[38;5;188m|[0m  [38;5;144m|[0m  [38;5;193m|[0m  [38;5;145m|[0m  [38;5;221m|[0m      64e2                	ld	s1,24(sp)
    80001220:	[38;5;188m|[0m  [38;5;144m|[0m  [38;5;193m|[0m  [38;5;145m|[0m  [38;5;221m|[0m      69a2                	ld	s3,8(sp)
    80001222:	[38;5;188m|[0m  [38;5;144m|[0m  [38;5;193m|[0m  [38;5;145m|[0m  [38;5;221m|[0m      854a                	mv	a0,s2
    80001224:	[38;5;188m|[0m  [38;5;144m|[0m  [38;5;193m|[0m  [38;5;145m|[0m  [38;5;221m|[0m      6942                	ld	s2,16(sp)
    80001226:	[38;5;188m|[0m  [38;5;144m|[0m  [38;5;193m|[0m  [38;5;145m|[0m  [38;5;221m|[0m      6145                	addi	sp,sp,48
    80001228:	[38;5;188m|[0m  [38;5;144m|[0m  [38;5;193m|[0m  [38;5;145m|[0m  [38;5;221m|[0m      8082                	ret
    8000122a:	[38;5;188m|[0m  [38;5;144m|[0m  [38;5;193m|[0m  [38;5;145m|[0m  [38;5;221m\---->[0m 00001797          	auipc	a5,0x1
    8000122e:	[38;5;188m|[0m  [38;5;144m|[0m  [38;5;193m|[0m  [38;5;145m|[0m         46e78793          	addi	a5,a5,1134 # 80002698 <__sf_fake_stdout>
    80001232:	[38;5;188m|[0m  [38;5;144m|[0m  [38;5;193m|[0m  [38;5;145m|[0m     [38;5;176m/--[0m 00f41463          	bne	s0,a5,8000123a <__swbuf_r+0x66>
    80001236:	[38;5;188m|[0m  [38;5;144m|[0m  [38;5;193m|[0m  [38;5;145m|[0m     [38;5;176m|[0m   6880                	ld	s0,16(s1)
    80001238:	[38;5;188m|[0m  [38;5;144m|[0m  [38;5;193m+[38;5;193m-[38;5;193m-[38;5;145m|[38;5;193m-[38;5;193m-[38;5;193m-[38;5;193m-[38;5;193m-[38;5;176m|[38;5;193m-[38;5;193m-[0m b7d9                	j	800011fe <__swbuf_r+0x2a>
    8000123a:	[38;5;188m|[0m  [38;5;144m|[0m  [38;5;193m|[0m  [38;5;145m|[0m     [38;5;176m\->[0m 00001797          	auipc	a5,0x1
    8000123e:	[38;5;188m|[0m  [38;5;144m|[0m  [38;5;193m|[0m  [38;5;145m|[0m         42678793          	addi	a5,a5,1062 # 80002660 <__sf_fake_stderr>
    80001242:	[38;5;188m|[0m  [38;5;144m|[0m  [38;5;193m+[38;5;193m-[38;5;193m-[38;5;145m|[38;5;193m-[38;5;193m-[38;5;193m-[38;5;193m-[38;5;193m-[38;5;193m-[38;5;193m-[38;5;193m-[0m faf41ee3          	bne	s0,a5,800011fe <__swbuf_r+0x2a>
    80001246:	[38;5;188m|[0m  [38;5;144m|[0m  [38;5;193m|[0m  [38;5;145m|[0m         6c80                	ld	s0,24(s1)
    80001248:	[38;5;188m|[0m  [38;5;144m|[0m  [38;5;193m\[38;5;193m-[38;5;193m-[38;5;145m|[38;5;193m-[38;5;193m-[38;5;193m-[38;5;193m-[38;5;193m-[38;5;193m-[38;5;193m-[38;5;193m-[0m bf5d                	j	800011fe <__swbuf_r+0x2a>
    8000124a:	[38;5;188m|[0m  [38;5;144m|[0m     [38;5;145m\[38;5;145m-[38;5;145m-[38;5;145m-[38;5;145m-[38;5;145m-[38;5;145m-[38;5;145m-[38;5;145m>[0m 6c1c                	ld	a5,24(s0)
    8000124c:	[38;5;188m|[0m  [38;5;144m|[0m               6008                	ld	a0,0(s0)
    8000124e:	[38;5;188m|[0m  [38;5;144m|[0m               0ff97993          	zext.b	s3,s2
    80001252:	[38;5;188m|[0m  [38;5;144m|[0m               894e                	mv	s2,s3
    80001254:	[38;5;188m|[0m  [38;5;144m|[0m               9d1d                	subw	a0,a0,a5
    80001256:	[38;5;188m|[0m  [38;5;144m|[0m               501c                	lw	a5,32(s0)
    80001258:	[38;5;188m|[0m  [38;5;144m|[0m           [38;5;160m/[38;5;160m-[38;5;160m-[0m 00f54763          	blt	a0,a5,80001266 <__swbuf_r+0x92>
    8000125c:	[38;5;188m|[0m  [38;5;144m|[0m           [38;5;160m|[0m   85a2                	mv	a1,s0
    8000125e:	[38;5;188m|[0m  [38;5;144m|[0m           [38;5;160m|[0m   8526                	mv	a0,s1
    80001260:	[38;5;188m|[0m  [38;5;144m|[0m           [38;5;160m|[0m   2da000ef          	jal	ra,8000153a <_fflush_r>
    80001264:	[38;5;188m+[38;5;188m-[38;5;188m-[38;5;144m|[38;5;188m-[38;5;188m-[38;5;188m-[38;5;188m-[38;5;188m-[38;5;188m-[38;5;188m-[38;5;188m-[38;5;188m-[38;5;188m-[38;5;188m-[38;5;160m|[38;5;188m-[38;5;188m-[0m f955                	bnez	a0,80001218 <__swbuf_r+0x44>
    80001266:	[38;5;188m|[0m  [38;5;144m|[0m           [38;5;160m\[38;5;160m-[38;5;160m>[0m 445c                	lw	a5,12(s0)
    80001268:	[38;5;188m|[0m  [38;5;144m|[0m               2505                	addiw	a0,a0,1
    8000126a:	[38;5;188m|[0m  [38;5;144m|[0m               37fd                	addiw	a5,a5,-1
    8000126c:	[38;5;188m|[0m  [38;5;144m|[0m               c45c                	sw	a5,12(s0)
    8000126e:	[38;5;188m|[0m  [38;5;144m|[0m               601c                	ld	a5,0(s0)
    80001270:	[38;5;188m|[0m  [38;5;144m|[0m               00178713          	addi	a4,a5,1
    80001274:	[38;5;188m|[0m  [38;5;144m|[0m               e018                	sd	a4,0(s0)
    80001276:	[38;5;188m|[0m  [38;5;144m|[0m               01378023          	sb	s3,0(a5)
    8000127a:	[38;5;188m|[0m  [38;5;144m|[0m               501c                	lw	a5,32(s0)
    8000127c:	[38;5;188m|[0m  [38;5;144m|[0m           [38;5;151m/--[0m 00a78963          	beq	a5,a0,8000128e <__swbuf_r+0xba>
    80001280:	[38;5;188m|[0m  [38;5;144m|[0m           [38;5;151m|[0m   01045783          	lhu	a5,16(s0)
    80001284:	[38;5;188m|[0m  [38;5;144m|[0m           [38;5;151m|[0m   8b85                	andi	a5,a5,1
    80001286:	[38;5;188m|[0m  [38;5;144m+-----------[38;5;151m|[38;5;144m--[0m dbd1                	beqz	a5,8000121a <__swbuf_r+0x46>
    80001288:	[38;5;188m|[0m  [38;5;144m|[0m           [38;5;151m|[0m   47a9                	li	a5,10
    8000128a:	[38;5;188m|[0m  [38;5;144m+-----------[38;5;151m|[38;5;144m--[0m f8f918e3          	bne	s2,a5,8000121a <__swbuf_r+0x46>
    8000128e:	[38;5;188m|[0m  [38;5;144m|[0m           [38;5;151m\->[0m 85a2                	mv	a1,s0
    80001290:	[38;5;188m|[0m  [38;5;144m|[0m               8526                	mv	a0,s1
    80001292:	[38;5;188m|[0m  [38;5;144m|[0m               2a8000ef          	jal	ra,8000153a <_fflush_r>
    80001296:	[38;5;188m|[0m  [38;5;144m\--------------[0m d151                	beqz	a0,8000121a <__swbuf_r+0x46>
    80001298:	[38;5;188m\[38;5;188m-[38;5;188m-[38;5;188m-[38;5;188m-[38;5;188m-[38;5;188m-[38;5;188m-[38;5;188m-[38;5;188m-[38;5;188m-[38;5;188m-[38;5;188m-[38;5;188m-[38;5;188m-[38;5;188m-[38;5;188m-[38;5;188m-[0m b741                	j	80001218 <__swbuf_r+0x44>

000000008000129a <__swbuf>:
    8000129a:	862e                	mv	a2,a1
    8000129c:	85aa                	mv	a1,a0
    8000129e:	00001517          	auipc	a0,0x1
    800012a2:	62253503          	ld	a0,1570(a0) # 800028c0 <_impure_ptr>
    800012a6:	b73d                	j	800011d4 <__swbuf_r>

00000000800012a8 <_write_r>:
    800012a8:	    1141                	addi	sp,sp,-16
    800012aa:	    e022                	sd	s0,0(sp)
    800012ac:	    842a                	mv	s0,a0
    800012ae:	    852e                	mv	a0,a1
    800012b0:	    85b2                	mv	a1,a2
    800012b2:	    8636                	mv	a2,a3
    800012b4:	    8601a823          	sw	zero,-1936(gp) # 80002930 <errno>
    800012b8:	    e406                	sd	ra,8(sp)
    800012ba:	    66d000ef          	jal	ra,80002126 <_write>
    800012be:	    57fd                	li	a5,-1
    800012c0:	[38;5;150m/[38;5;150m-[38;5;150m-[0m 00f51663          	bne	a0,a5,800012cc <_write_r+0x24>
    800012c4:	[38;5;150m|[0m   8701a783          	lw	a5,-1936(gp) # 80002930 <errno>
    800012c8:	[38;5;150m+[38;5;150m-[38;5;150m-[0m c391                	beqz	a5,800012cc <_write_r+0x24>
    800012ca:	[38;5;150m|[0m   c01c                	sw	a5,0(s0)
    800012cc:	[38;5;150m\[38;5;150m-[38;5;150m>[0m 60a2                	ld	ra,8(sp)
    800012ce:	    6402                	ld	s0,0(sp)
    800012d0:	    0141                	addi	sp,sp,16
    800012d2:	    8082                	ret

00000000800012d4 <__swsetup_r>:
    800012d4:	                   1101                	addi	sp,sp,-32
    800012d6:	                   e822                	sd	s0,16(sp)
    800012d8:	                   e426                	sd	s1,8(sp)
    800012da:	                   e04a                	sd	s2,0(sp)
    800012dc:	                   ec06                	sd	ra,24(sp)
    800012de:	                   00001497          	auipc	s1,0x1
    800012e2:	                   5e24b483          	ld	s1,1506(s1) # 800028c0 <_impure_ptr>
    800012e6:	                   892a                	mv	s2,a0
    800012e8:	                   842e                	mv	s0,a1
    800012ea:	               [38;5;166m/--[0m c491                	beqz	s1,800012f6 <__swsetup_r+0x22>
    800012ec:	               [38;5;166m|[0m   589c                	lw	a5,48(s1)
    800012ee:	               [38;5;166m+--[0m e781                	bnez	a5,800012f6 <__swsetup_r+0x22>
    800012f0:	               [38;5;166m|[0m   8526                	mv	a0,s1
    800012f2:	               [38;5;166m|[0m   fa8ff0ef          	jal	ra,80000a9a <__sinit>
    800012f6:	               [38;5;166m\->[0m 00001797          	auipc	a5,0x1
    800012fa:	                   3da78793          	addi	a5,a5,986 # 800026d0 <__sf_fake_stdin>
    800012fe:	               [38;5;175m/--[0m 02f41463          	bne	s0,a5,80001326 <__swsetup_r+0x52>
    80001302:	               [38;5;175m|[0m   6480                	ld	s0,8(s1)
    80001304:	         [38;5;149m/[38;5;149m-[38;5;149m-[38;5;149m-[38;5;149m-[38;5;149m-[38;5;175m|[38;5;149m-[38;5;149m>[0m 01041783          	lh	a5,16(s0)
    80001308:	         [38;5;149m|[0m     [38;5;175m|[0m   0087f713          	andi	a4,a5,8
    8000130c:	      [38;5;198m/[38;5;198m-[38;5;198m-[38;5;149m|[38;5;198m-[38;5;198m-[38;5;198m-[38;5;198m-[38;5;198m-[38;5;175m|[38;5;198m-[38;5;198m-[0m eb35                	bnez	a4,80001380 <__swsetup_r+0xac>
    8000130e:	      [38;5;198m|[0m  [38;5;149m|[0m     [38;5;175m|[0m   0107f713          	andi	a4,a5,16
    80001312:	      [38;5;198m|[0m  [38;5;149m|[0m  [38;5;175m/--|--[0m eb15                	bnez	a4,80001346 <__swsetup_r+0x72>
    80001314:	      [38;5;198m|[0m  [38;5;149m|[0m  [38;5;175m|[0m  [38;5;175m|[0m   4725                	li	a4,9
    80001316:	      [38;5;198m|[0m  [38;5;149m|[0m  [38;5;175m|[0m  [38;5;175m|[0m   00e92023          	sw	a4,0(s2)
    8000131a:	[38;5;138m/-----[38;5;198m|[38;5;138m--[38;5;149m|[38;5;138m--[38;5;175m|[38;5;138m--[38;5;175m|[38;5;138m->[0m 0407e793          	ori	a5,a5,64
    8000131e:	[38;5;138m|[0m     [38;5;198m|[0m  [38;5;149m|[0m  [38;5;175m|[0m  [38;5;175m|[0m   00f41823          	sh	a5,16(s0)
    80001322:	[38;5;138m|[0m     [38;5;198m|[0m  [38;5;149m|[0m  [38;5;175m|[0m  [38;5;175m|[0m   557d                	li	a0,-1
    80001324:	[38;5;138m|[0m  [38;5;153m/[38;5;153m-[38;5;153m-[38;5;198m|[38;5;153m-[38;5;153m-[38;5;149m|[38;5;153m-[38;5;153m-[38;5;175m|[38;5;153m-[38;5;153m-[38;5;175m|[38;5;153m-[38;5;153m-[0m a869                	j	800013be <__swsetup_r+0xea>
    80001326:	[38;5;138m|[0m  [38;5;153m|[0m  [38;5;198m|[0m  [38;5;149m|[0m  [38;5;175m|[0m  [38;5;175m\->[0m 00001797          	auipc	a5,0x1
    8000132a:	[38;5;138m|[0m  [38;5;153m|[0m  [38;5;198m|[0m  [38;5;149m|[0m  [38;5;175m|[0m      37278793          	addi	a5,a5,882 # 80002698 <__sf_fake_stdout>
    8000132e:	[38;5;138m|[0m  [38;5;153m|[0m  [38;5;198m|[0m  [38;5;149m|[0m  [38;5;175m|[0m  [38;5;147m/[38;5;147m-[38;5;147m-[0m 00f41463          	bne	s0,a5,80001336 <__swsetup_r+0x62>
    80001332:	[38;5;138m|[0m  [38;5;153m|[0m  [38;5;198m|[0m  [38;5;149m|[0m  [38;5;175m|[0m  [38;5;147m|[0m   6880                	ld	s0,16(s1)
    80001334:	[38;5;138m|[0m  [38;5;153m|[0m  [38;5;198m|[0m  [38;5;149m+[38;5;149m-[38;5;149m-[38;5;175m|[38;5;149m-[38;5;149m-[38;5;147m|[38;5;149m-[38;5;149m-[0m bfc1                	j	80001304 <__swsetup_r+0x30>
    80001336:	[38;5;138m|[0m  [38;5;153m|[0m  [38;5;198m|[0m  [38;5;149m|[0m  [38;5;175m|[0m  [38;5;147m\[38;5;147m-[38;5;147m>[0m 00001797          	auipc	a5,0x1
    8000133a:	[38;5;138m|[0m  [38;5;153m|[0m  [38;5;198m|[0m  [38;5;149m|[0m  [38;5;175m|[0m      32a78793          	addi	a5,a5,810 # 80002660 <__sf_fake_stderr>
    8000133e:	[38;5;138m|[0m  [38;5;153m|[0m  [38;5;198m|[0m  [38;5;149m+[38;5;149m-[38;5;149m-[38;5;175m|[38;5;149m-[38;5;149m-[38;5;149m-[38;5;149m-[38;5;149m-[0m fcf413e3          	bne	s0,a5,80001304 <__swsetup_r+0x30>
    80001342:	[38;5;138m|[0m  [38;5;153m|[0m  [38;5;198m|[0m  [38;5;149m|[0m  [38;5;175m|[0m      6c80                	ld	s0,24(s1)
    80001344:	[38;5;138m|[0m  [38;5;153m|[0m  [38;5;198m|[0m  [38;5;149m\[38;5;149m-[38;5;149m-[38;5;175m|[38;5;149m-[38;5;149m-[38;5;149m-[38;5;149m-[38;5;149m-[0m b7c1                	j	80001304 <__swsetup_r+0x30>
    80001346:	[38;5;138m|[0m  [38;5;153m|[0m  [38;5;198m|[0m     [38;5;175m\---->[0m 8b91                	andi	a5,a5,4
    80001348:	[38;5;138m|[0m  [38;5;153m|[0m  [38;5;198m|[0m  [38;5;225m/--------[0m c795                	beqz	a5,80001374 <__swsetup_r+0xa0>
    8000134a:	[38;5;138m|[0m  [38;5;153m|[0m  [38;5;198m|[0m  [38;5;225m|[0m         702c                	ld	a1,96(s0)
    8000134c:	[38;5;138m|[0m  [38;5;153m|[0m  [38;5;198m|[0m  [38;5;225m|[0m  [38;5;153m/-----[0m c991                	beqz	a1,80001360 <__swsetup_r+0x8c>
    8000134e:	[38;5;138m|[0m  [38;5;153m|[0m  [38;5;198m|[0m  [38;5;225m|[0m  [38;5;153m|[0m      07c40793          	addi	a5,s0,124
    80001352:	[38;5;138m|[0m  [38;5;153m|[0m  [38;5;198m|[0m  [38;5;225m|[0m  [38;5;153m|[0m  [38;5;145m/--[0m 00f58563          	beq	a1,a5,8000135c <__swsetup_r+0x88>
    80001356:	[38;5;138m|[0m  [38;5;153m|[0m  [38;5;198m|[0m  [38;5;225m|[0m  [38;5;153m|[0m  [38;5;145m|[0m   854a                	mv	a0,s2
    80001358:	[38;5;138m|[0m  [38;5;153m|[0m  [38;5;198m|[0m  [38;5;225m|[0m  [38;5;153m|[0m  [38;5;145m|[0m   6ca000ef          	jal	ra,80001a22 <_free_r>
    8000135c:	[38;5;138m|[0m  [38;5;153m|[0m  [38;5;198m|[0m  [38;5;225m|[0m  [38;5;153m|[0m  [38;5;145m\->[0m 06043023          	sd	zero,96(s0)
    80001360:	[38;5;138m|[0m  [38;5;153m|[0m  [38;5;198m|[0m  [38;5;225m|[0m  [38;5;153m\---->[0m 01045783          	lhu	a5,16(s0)
    80001364:	[38;5;138m|[0m  [38;5;153m|[0m  [38;5;198m|[0m  [38;5;225m|[0m         00042423          	sw	zero,8(s0)
    80001368:	[38;5;138m|[0m  [38;5;153m|[0m  [38;5;198m|[0m  [38;5;225m|[0m         fdb7f793          	andi	a5,a5,-37
    8000136c:	[38;5;138m|[0m  [38;5;153m|[0m  [38;5;198m|[0m  [38;5;225m|[0m         00f41823          	sh	a5,16(s0)
    80001370:	[38;5;138m|[0m  [38;5;153m|[0m  [38;5;198m|[0m  [38;5;225m|[0m         6c1c                	ld	a5,24(s0)
    80001372:	[38;5;138m|[0m  [38;5;153m|[0m  [38;5;198m|[0m  [38;5;225m|[0m         e01c                	sd	a5,0(s0)
    80001374:	[38;5;138m|[0m  [38;5;153m|[0m  [38;5;198m|[0m  [38;5;225m\------->[0m 01045783          	lhu	a5,16(s0)
    80001378:	[38;5;138m|[0m  [38;5;153m|[0m  [38;5;198m|[0m            0087e793          	ori	a5,a5,8
    8000137c:	[38;5;138m|[0m  [38;5;153m|[0m  [38;5;198m|[0m            00f41823          	sh	a5,16(s0)
    80001380:	[38;5;138m|[0m  [38;5;153m|[0m  [38;5;198m\[38;5;198m-[38;5;198m-[38;5;198m-[38;5;198m-[38;5;198m-[38;5;198m-[38;5;198m-[38;5;198m-[38;5;198m-[38;5;198m-[38;5;198m>[0m 6c1c                	ld	a5,24(s0)
    80001382:	[38;5;138m|[0m  [38;5;153m|[0m           [38;5;179m/--[0m ef89                	bnez	a5,8000139c <__swsetup_r+0xc8>
    80001384:	[38;5;138m|[0m  [38;5;153m|[0m           [38;5;179m|[0m   01045783          	lhu	a5,16(s0)
    80001388:	[38;5;138m|[0m  [38;5;153m|[0m           [38;5;179m|[0m   20000713          	li	a4,512
    8000138c:	[38;5;138m|[0m  [38;5;153m|[0m           [38;5;179m|[0m   2807f793          	andi	a5,a5,640
    80001390:	[38;5;138m|[0m  [38;5;153m|[0m           [38;5;179m+--[0m 00e78663          	beq	a5,a4,8000139c <__swsetup_r+0xc8>
    80001394:	[38;5;138m|[0m  [38;5;153m|[0m           [38;5;179m|[0m   85a2                	mv	a1,s0
    80001396:	[38;5;138m|[0m  [38;5;153m|[0m           [38;5;179m|[0m   854a                	mv	a0,s2
    80001398:	[38;5;138m|[0m  [38;5;153m|[0m           [38;5;179m|[0m   588000ef          	jal	ra,80001920 <__smakebuf_r>
    8000139c:	[38;5;138m|[0m  [38;5;153m|[0m           [38;5;179m\->[0m 01041783          	lh	a5,16(s0)
    800013a0:	[38;5;138m|[0m  [38;5;153m|[0m               0017f713          	andi	a4,a5,1
    800013a4:	[38;5;138m|[0m  [38;5;153m|[0m           [38;5;203m/[38;5;203m-[38;5;203m-[0m c31d                	beqz	a4,800013ca <__swsetup_r+0xf6>
    800013a6:	[38;5;138m|[0m  [38;5;153m|[0m           [38;5;203m|[0m   5018                	lw	a4,32(s0)
    800013a8:	[38;5;138m|[0m  [38;5;153m|[0m           [38;5;203m|[0m   00042623          	sw	zero,12(s0)
    800013ac:	[38;5;138m|[0m  [38;5;153m|[0m           [38;5;203m|[0m   40e0073b          	negw	a4,a4
    800013b0:	[38;5;138m|[0m  [38;5;153m|[0m           [38;5;203m|[0m   d418                	sw	a4,40(s0)
    800013b2:	[38;5;138m|[0m  [38;5;153m|[0m        [38;5;153m/[38;5;153m-[38;5;153m-[38;5;203m|[38;5;153m-[38;5;153m>[0m 6c18                	ld	a4,24(s0)
    800013b4:	[38;5;138m|[0m  [38;5;153m|[0m        [38;5;153m|[0m  [38;5;203m|[0m   4501                	li	a0,0
    800013b6:	[38;5;138m|[0m  [38;5;153m+[38;5;153m-[38;5;153m-[38;5;153m-[38;5;153m-[38;5;153m-[38;5;153m-[38;5;153m-[38;5;153m-[38;5;153m|[38;5;153m-[38;5;153m-[38;5;203m|[38;5;153m-[38;5;153m-[0m e701                	bnez	a4,800013be <__swsetup_r+0xea>
    800013b8:	[38;5;138m|[0m  [38;5;153m|[0m        [38;5;153m|[0m  [38;5;203m|[0m   0807f713          	andi	a4,a5,128
    800013bc:	[38;5;138m\--[38;5;153m|[38;5;138m--------[38;5;153m|[38;5;138m--[38;5;203m|[38;5;138m--[0m ff39                	bnez	a4,8000131a <__swsetup_r+0x46>
    800013be:	   [38;5;153m\[38;5;153m-[38;5;153m-[38;5;153m-[38;5;153m-[38;5;153m-[38;5;153m-[38;5;153m-[38;5;153m-[38;5;153m|[38;5;153m-[38;5;153m-[38;5;203m|[38;5;153m-[38;5;153m>[0m 60e2                	ld	ra,24(sp)
    800013c0:	            [38;5;153m|[0m  [38;5;203m|[0m   6442                	ld	s0,16(sp)
    800013c2:	            [38;5;153m|[0m  [38;5;203m|[0m   64a2                	ld	s1,8(sp)
    800013c4:	            [38;5;153m|[0m  [38;5;203m|[0m   6902                	ld	s2,0(sp)
    800013c6:	            [38;5;153m|[0m  [38;5;203m|[0m   6105                	addi	sp,sp,32
    800013c8:	            [38;5;153m|[0m  [38;5;203m|[0m   8082                	ret
    800013ca:	            [38;5;153m|[0m  [38;5;203m\[38;5;203m-[38;5;203m>[0m 0027f713          	andi	a4,a5,2
    800013ce:	            [38;5;153m|[0m      4681                	li	a3,0
    800013d0:	            [38;5;153m|[0m  [38;5;146m/[38;5;146m-[38;5;146m-[0m e311                	bnez	a4,800013d4 <__swsetup_r+0x100>
    800013d2:	            [38;5;153m|[0m  [38;5;146m|[0m   5014                	lw	a3,32(s0)
    800013d4:	            [38;5;153m|[0m  [38;5;146m\[38;5;146m-[38;5;146m>[0m c454                	sw	a3,12(s0)
    800013d6:	            [38;5;153m\[38;5;153m-[38;5;153m-[38;5;153m-[38;5;153m-[38;5;153m-[0m bff1                	j	800013b2 <__swsetup_r+0xde>

00000000800013d8 <_close_r>:
    800013d8:	    1141                	addi	sp,sp,-16
    800013da:	    e022                	sd	s0,0(sp)
    800013dc:	    842a                	mv	s0,a0
    800013de:	    852e                	mv	a0,a1
    800013e0:	    8601a823          	sw	zero,-1936(gp) # 80002930 <errno>
    800013e4:	    e406                	sd	ra,8(sp)
    800013e6:	    4ab000ef          	jal	ra,80002090 <_close>
    800013ea:	    57fd                	li	a5,-1
    800013ec:	[38;5;149m/[38;5;149m-[38;5;149m-[0m 00f51663          	bne	a0,a5,800013f8 <_close_r+0x20>
    800013f0:	[38;5;149m|[0m   8701a783          	lw	a5,-1936(gp) # 80002930 <errno>
    800013f4:	[38;5;149m+[38;5;149m-[38;5;149m-[0m c391                	beqz	a5,800013f8 <_close_r+0x20>
    800013f6:	[38;5;149m|[0m   c01c                	sw	a5,0(s0)
    800013f8:	[38;5;149m\[38;5;149m-[38;5;149m>[0m 60a2                	ld	ra,8(sp)
    800013fa:	    6402                	ld	s0,0(sp)
    800013fc:	    0141                	addi	sp,sp,16
    800013fe:	    8082                	ret

0000000080001400 <__sflush_r>:
    80001400:	                            01059783          	lh	a5,16(a1)
    80001404:	                            7179                	addi	sp,sp,-48
    80001406:	                            f022                	sd	s0,32(sp)
    80001408:	                            ec26                	sd	s1,24(sp)
    8000140a:	                            f406                	sd	ra,40(sp)
    8000140c:	                            e84a                	sd	s2,16(sp)
    8000140e:	                            e44e                	sd	s3,8(sp)
    80001410:	                            0087f713          	andi	a4,a5,8
    80001414:	                            84aa                	mv	s1,a0
    80001416:	                            842e                	mv	s0,a1
    80001418:	   [38;5;184m/[38;5;184m-[38;5;184m-[38;5;184m-[38;5;184m-[38;5;184m-[38;5;184m-[38;5;184m-[38;5;184m-[38;5;184m-[38;5;184m-[38;5;184m-[38;5;184m-[38;5;184m-[38;5;184m-[38;5;184m-[38;5;184m-[38;5;184m-[38;5;184m-[38;5;184m-[38;5;184m-[38;5;184m-[38;5;184m-[38;5;184m-[0m e771                	bnez	a4,800014e4 <__sflush_r+0xe4>
    8000141a:	   [38;5;184m|[0m                        4598                	lw	a4,8(a1)
    8000141c:	   [38;5;184m|[0m                    [38;5;181m/[38;5;181m-[38;5;181m-[0m 00e04563          	bgtz	a4,80001426 <__sflush_r+0x26>
    80001420:	   [38;5;184m|[0m                    [38;5;181m|[0m   5db8                	lw	a4,120(a1)
    80001422:	[38;5;192m/[38;5;192m-[38;5;192m-[38;5;184m|[38;5;192m-[38;5;192m-[38;5;192m-[38;5;192m-[38;5;192m-[38;5;192m-[38;5;192m-[38;5;192m-[38;5;192m-[38;5;192m-[38;5;192m-[38;5;192m-[38;5;192m-[38;5;192m-[38;5;192m-[38;5;192m-[38;5;192m-[38;5;192m-[38;5;192m-[38;5;192m-[38;5;181m|[38;5;192m-[38;5;192m-[0m 08e05963          	blez	a4,800014b4 <__sflush_r+0xb4>
    80001426:	[38;5;192m|[0m  [38;5;184m|[0m                    [38;5;181m\[38;5;181m-[38;5;181m>[0m 6838                	ld	a4,80(s0)
    80001428:	[38;5;192m+[38;5;192m-[38;5;192m-[38;5;184m|[38;5;192m-[38;5;192m-[38;5;192m-[38;5;192m-[38;5;192m-[38;5;192m-[38;5;192m-[38;5;192m-[38;5;192m-[38;5;192m-[38;5;192m-[38;5;192m-[38;5;192m-[38;5;192m-[38;5;192m-[38;5;192m-[38;5;192m-[38;5;192m-[38;5;192m-[38;5;192m-[38;5;192m-[38;5;192m-[38;5;192m-[0m c751                	beqz	a4,800014b4 <__sflush_r+0xb4>
    8000142a:	[38;5;192m|[0m  [38;5;184m|[0m                        83b1                	srli	a5,a5,0xc
    8000142c:	[38;5;192m|[0m  [38;5;184m|[0m                        0004a903          	lw	s2,0(s1)
    80001430:	[38;5;192m|[0m  [38;5;184m|[0m                        8b85                	andi	a5,a5,1
    80001432:	[38;5;192m|[0m  [38;5;184m|[0m                        0004a023          	sw	zero,0(s1)
    80001436:	[38;5;192m|[0m  [38;5;184m|[0m                        7c0c                	ld	a1,56(s0)
    80001438:	[38;5;192m|[0m  [38;5;184m|[0m                 [38;5;171m/-----[0m cfa1                	beqz	a5,80001490 <__sflush_r+0x90>
    8000143a:	[38;5;192m|[0m  [38;5;184m|[0m                 [38;5;171m|[0m      6c50                	ld	a2,152(s0)
    8000143c:	[38;5;192m|[0m  [38;5;184m|[0m        [38;5;157m/[38;5;157m-[38;5;157m-[38;5;157m-[38;5;157m-[38;5;157m-[38;5;157m-[38;5;157m-[38;5;157m-[38;5;171m|[38;5;157m-[38;5;157m-[38;5;157m-[38;5;157m-[38;5;157m>[0m 01045783          	lhu	a5,16(s0)
    80001440:	[38;5;192m|[0m  [38;5;184m|[0m        [38;5;157m|[0m        [38;5;171m|[0m      8b91                	andi	a5,a5,4
    80001442:	[38;5;192m|[0m  [38;5;184m|[0m        [38;5;157m|[0m        [38;5;171m|[0m  [38;5;176m/--[0m c799                	beqz	a5,80001450 <__sflush_r+0x50>
    80001444:	[38;5;192m|[0m  [38;5;184m|[0m        [38;5;157m|[0m        [38;5;171m|[0m  [38;5;176m|[0m   441c                	lw	a5,8(s0)
    80001446:	[38;5;192m|[0m  [38;5;184m|[0m        [38;5;157m|[0m        [38;5;171m|[0m  [38;5;176m|[0m   8e1d                	sub	a2,a2,a5
    80001448:	[38;5;192m|[0m  [38;5;184m|[0m        [38;5;157m|[0m        [38;5;171m|[0m  [38;5;176m|[0m   703c                	ld	a5,96(s0)
    8000144a:	[38;5;192m|[0m  [38;5;184m|[0m        [38;5;157m|[0m        [38;5;171m|[0m  [38;5;176m+--[0m c399                	beqz	a5,80001450 <__sflush_r+0x50>
    8000144c:	[38;5;192m|[0m  [38;5;184m|[0m        [38;5;157m|[0m        [38;5;171m|[0m  [38;5;176m|[0m   5c3c                	lw	a5,120(s0)
    8000144e:	[38;5;192m|[0m  [38;5;184m|[0m        [38;5;157m|[0m        [38;5;171m|[0m  [38;5;176m|[0m   8e1d                	sub	a2,a2,a5
    80001450:	[38;5;192m|[0m  [38;5;184m|[0m        [38;5;157m|[0m        [38;5;171m|[0m  [38;5;176m\->[0m 683c                	ld	a5,80(s0)
    80001452:	[38;5;192m|[0m  [38;5;184m|[0m        [38;5;157m|[0m        [38;5;171m|[0m      7c0c                	ld	a1,56(s0)
    80001454:	[38;5;192m|[0m  [38;5;184m|[0m        [38;5;157m|[0m        [38;5;171m|[0m      4681                	li	a3,0
    80001456:	[38;5;192m|[0m  [38;5;184m|[0m        [38;5;157m|[0m        [38;5;171m|[0m      8526                	mv	a0,s1
    80001458:	[38;5;192m|[0m  [38;5;184m|[0m        [38;5;157m|[0m        [38;5;171m|[0m      9782                	jalr	a5
    8000145a:	[38;5;192m|[0m  [38;5;184m|[0m        [38;5;157m|[0m        [38;5;171m|[0m      57fd                	li	a5,-1
    8000145c:	[38;5;192m|[0m  [38;5;184m|[0m        [38;5;157m|[0m     [38;5;168m/[38;5;168m-[38;5;168m-[38;5;171m|[38;5;168m-[38;5;168m-[38;5;168m-[38;5;168m-[38;5;168m-[0m 04f50e63          	beq	a0,a5,800014b8 <__sflush_r+0xb8>
    80001460:	[38;5;192m|[0m  [38;5;184m|[0m        [38;5;157m|[0m     [38;5;168m|[0m  [38;5;171m|[0m      6c1c                	ld	a5,24(s0)
    80001462:	[38;5;192m|[0m  [38;5;184m|[0m        [38;5;157m|[0m     [38;5;168m|[0m  [38;5;171m|[0m      6705                	lui	a4,0x1
    80001464:	[38;5;192m|[0m  [38;5;184m|[0m        [38;5;157m|[0m     [38;5;168m|[0m  [38;5;171m|[0m      00042423          	sw	zero,8(s0)
    80001468:	[38;5;192m|[0m  [38;5;184m|[0m        [38;5;157m|[0m     [38;5;168m|[0m  [38;5;171m|[0m      e01c                	sd	a5,0(s0)
    8000146a:	[38;5;192m|[0m  [38;5;184m|[0m        [38;5;157m|[0m     [38;5;168m|[0m  [38;5;171m|[0m      01045783          	lhu	a5,16(s0)
    8000146e:	[38;5;192m|[0m  [38;5;184m|[0m        [38;5;157m|[0m     [38;5;168m|[0m  [38;5;171m|[0m      8ff9                	and	a5,a5,a4
    80001470:	[38;5;192m|[0m  [38;5;184m|[0m  [38;5;157m/[38;5;157m-[38;5;157m-[38;5;157m-[38;5;157m-[38;5;157m-[38;5;157m|[38;5;157m-[38;5;157m-[38;5;143m/[38;5;143m-[38;5;143m-[38;5;168m|[38;5;143m-[38;5;143m-[38;5;171m|[38;5;143m-[38;5;143m-[38;5;143m-[38;5;143m-[38;5;157mX[0m c391                	beqz	a5,80001474 <__sflush_r+0x74>
    80001472:	[38;5;192m|[0m  [38;5;184m|[0m  [38;5;157m|[0m     [38;5;157m|[0m  [38;5;143m|[0m  [38;5;168m|[0m  [38;5;171m|[0m      ec48                	sd	a0,152(s0)
    80001474:	[38;5;192m|[0m  [38;5;184m|[0m  [38;5;157m|[0m     [38;5;157m|[0m  [38;5;143m>[38;5;143m-[38;5;143m-[38;5;168m|[38;5;143m-[38;5;143m-[38;5;171m|[38;5;143m-[38;5;143m-[38;5;143m-[38;5;143m-[38;5;143m>[0m 702c                	ld	a1,96(s0)
    80001476:	[38;5;192m|[0m  [38;5;184m|[0m  [38;5;157m|[0m     [38;5;157m|[0m  [38;5;143m|[0m  [38;5;168m|[0m  [38;5;171m|[0m      0124a023          	sw	s2,0(s1)
    8000147a:	[38;5;192m+[38;5;192m-[38;5;192m-[38;5;184m|[38;5;192m-[38;5;192m-[38;5;157m|[38;5;192m-[38;5;192m-[38;5;192m-[38;5;192m-[38;5;192m-[38;5;157m|[38;5;192m-[38;5;192m-[38;5;143m|[38;5;192m-[38;5;192m-[38;5;168m|[38;5;192m-[38;5;192m-[38;5;171m|[38;5;192m-[38;5;192m-[38;5;192m-[38;5;192m-[38;5;192m-[0m cd8d                	beqz	a1,800014b4 <__sflush_r+0xb4>
    8000147c:	[38;5;192m|[0m  [38;5;184m|[0m  [38;5;157m|[0m     [38;5;157m|[0m  [38;5;143m|[0m  [38;5;168m|[0m  [38;5;171m|[0m      07c40793          	addi	a5,s0,124
    80001480:	[38;5;192m|[0m  [38;5;184m|[0m  [38;5;157m|[0m     [38;5;157m|[0m  [38;5;143m|[0m  [38;5;168m|[0m  [38;5;171m|[0m  [38;5;202m/[38;5;202m-[38;5;202m-[0m 00f58563          	beq	a1,a5,8000148a <__sflush_r+0x8a>
    80001484:	[38;5;192m|[0m  [38;5;184m|[0m  [38;5;157m|[0m     [38;5;157m|[0m  [38;5;143m|[0m  [38;5;168m|[0m  [38;5;171m|[0m  [38;5;202m|[0m   8526                	mv	a0,s1
    80001486:	[38;5;192m|[0m  [38;5;184m|[0m  [38;5;157m|[0m     [38;5;157m|[0m  [38;5;143m|[0m  [38;5;168m|[0m  [38;5;171m|[0m  [38;5;202m|[0m   59c000ef          	jal	ra,80001a22 <_free_r>
    8000148a:	[38;5;192m|[0m  [38;5;184m|[0m  [38;5;157m|[0m     [38;5;157m|[0m  [38;5;143m|[0m  [38;5;168m|[0m  [38;5;171m|[0m  [38;5;202m\[38;5;202m-[38;5;202m>[0m 06043023          	sd	zero,96(s0)
    8000148e:	[38;5;192m+[38;5;192m-[38;5;192m-[38;5;184m|[38;5;192m-[38;5;192m-[38;5;157m|[38;5;192m-[38;5;192m-[38;5;192m-[38;5;192m-[38;5;192m-[38;5;157m|[38;5;192m-[38;5;192m-[38;5;143m|[38;5;192m-[38;5;192m-[38;5;168m|[38;5;192m-[38;5;192m-[38;5;171m|[38;5;192m-[38;5;192m-[38;5;192m-[38;5;192m-[38;5;192m-[0m a01d                	j	800014b4 <__sflush_r+0xb4>
    80001490:	[38;5;192m|[0m  [38;5;184m|[0m  [38;5;157m|[0m     [38;5;157m|[0m  [38;5;143m|[0m  [38;5;168m|[0m  [38;5;171m\---->[0m 4601                	li	a2,0
    80001492:	[38;5;192m|[0m  [38;5;184m|[0m  [38;5;157m|[0m     [38;5;157m|[0m  [38;5;143m|[0m  [38;5;168m|[0m         4685                	li	a3,1
    80001494:	[38;5;192m|[0m  [38;5;184m|[0m  [38;5;157m|[0m     [38;5;157m|[0m  [38;5;143m|[0m  [38;5;168m|[0m         8526                	mv	a0,s1
    80001496:	[38;5;192m|[0m  [38;5;184m|[0m  [38;5;157m|[0m     [38;5;157m|[0m  [38;5;143m|[0m  [38;5;168m|[0m         9702                	jalr	a4
    80001498:	[38;5;192m|[0m  [38;5;184m|[0m  [38;5;157m|[0m     [38;5;157m|[0m  [38;5;143m|[0m  [38;5;168m|[0m         57fd                	li	a5,-1
    8000149a:	[38;5;192m|[0m  [38;5;184m|[0m  [38;5;157m|[0m     [38;5;157m|[0m  [38;5;143m|[0m  [38;5;168m|[0m         862a                	mv	a2,a0
    8000149c:	[38;5;192m|[0m  [38;5;184m|[0m  [38;5;157m|[0m     [38;5;157m+[38;5;157m-[38;5;157m-[38;5;143m|[38;5;157m-[38;5;157m-[38;5;168m|[38;5;157m-[38;5;157m-[38;5;157m-[38;5;157m-[38;5;157m-[38;5;157m-[38;5;157m-[38;5;157m-[0m faf510e3          	bne	a0,a5,8000143c <__sflush_r+0x3c>
    800014a0:	[38;5;192m|[0m  [38;5;184m|[0m  [38;5;157m|[0m     [38;5;157m|[0m  [38;5;143m|[0m  [38;5;168m|[0m         409c                	lw	a5,0(s1)
    800014a2:	[38;5;192m|[0m  [38;5;184m|[0m  [38;5;157m|[0m     [38;5;157m\[38;5;157m-[38;5;157m-[38;5;143m|[38;5;157m-[38;5;157m-[38;5;168m|[38;5;157m-[38;5;157m-[38;5;157m-[38;5;157m-[38;5;157m-[38;5;157m-[38;5;157m-[38;5;157m-[0m dfc9                	beqz	a5,8000143c <__sflush_r+0x3c>
    800014a4:	[38;5;192m|[0m  [38;5;184m|[0m  [38;5;157m|[0m        [38;5;143m|[0m  [38;5;168m|[0m         4775                	li	a4,29
    800014a6:	[38;5;192m|[0m  [38;5;184m|[0m  [38;5;157m|[0m        [38;5;143m|[0m  [38;5;168m|[0m     [38;5;183m/[38;5;183m-[38;5;183m-[0m 00e78563          	beq	a5,a4,800014b0 <__sflush_r+0xb0>
    800014aa:	[38;5;192m|[0m  [38;5;184m|[0m  [38;5;157m|[0m        [38;5;143m|[0m  [38;5;168m|[0m     [38;5;183m|[0m   4759                	li	a4,22
    800014ac:	[38;5;192m|[0m  [38;5;184m|[0m  [38;5;157m|[0m     [38;5;129m/--[38;5;143m|[38;5;129m--[38;5;168m|[38;5;129m-----[38;5;183m|[38;5;129m--[0m 06e79563          	bne	a5,a4,80001516 <__sflush_r+0x116>
    800014b0:	[38;5;192m|[0m  [38;5;184m|[0m  [38;5;157m|[0m     [38;5;129m|[0m  [38;5;143m|[0m  [38;5;168m|[0m     [38;5;183m\[38;5;183m-[38;5;183m>[0m 0124a023          	sw	s2,0(s1)
    800014b4:	[38;5;192m>[38;5;192m-[38;5;192m-[38;5;184m|[38;5;192m-[38;5;192m-[38;5;157m|[38;5;192m-[38;5;192m-[38;5;192m-[38;5;192m-[38;5;192m-[38;5;129m|[38;5;192m-[38;5;192m-[38;5;143m|[38;5;192m-[38;5;192m-[38;5;168m|[38;5;192m-[38;5;192m-[38;5;192m-[38;5;192m-[38;5;192m-[38;5;192m-[38;5;192m-[38;5;192m>[0m 4501                	li	a0,0
    800014b6:	[38;5;192m|[0m  [38;5;184m|[0m  [38;5;157m|[0m  [38;5;229m/--[38;5;129m|[38;5;229m--[38;5;143m|[38;5;229m--[38;5;168m|[38;5;229m--------[0m a0bd                	j	80001524 <__sflush_r+0x124>
    800014b8:	[38;5;192m|[0m  [38;5;184m|[0m  [38;5;157m|[0m  [38;5;229m|[0m  [38;5;129m|[0m  [38;5;143m|[0m  [38;5;168m\[38;5;168m-[38;5;168m-[38;5;168m-[38;5;168m-[38;5;168m-[38;5;168m-[38;5;168m-[38;5;168m>[0m 4098                	lw	a4,0(s1)
    800014ba:	[38;5;192m|[0m  [38;5;184m|[0m  [38;5;157m|[0m  [38;5;229m|[0m  [38;5;129m|[0m  [38;5;143m|[0m            01041783          	lh	a5,16(s0)
    800014be:	[38;5;192m|[0m  [38;5;184m|[0m  [38;5;157m|[0m  [38;5;229m|[0m  [38;5;129m|[0m  [38;5;143m|[0m     [38;5;171m/[38;5;171m-[38;5;171m-[38;5;171m-[38;5;171m-[38;5;171m-[0m cf01                	beqz	a4,800014d6 <__sflush_r+0xd6>
    800014c0:	[38;5;192m|[0m  [38;5;184m|[0m  [38;5;157m|[0m  [38;5;229m|[0m  [38;5;129m|[0m  [38;5;143m|[0m     [38;5;171m|[0m      46f5                	li	a3,29
    800014c2:	[38;5;192m|[0m  [38;5;184m|[0m  [38;5;157m|[0m  [38;5;229m|[0m  [38;5;129m|[0m  [38;5;143m|[0m     [38;5;171m|[0m  [38;5;153m/[38;5;153m-[38;5;153m-[0m 00d70563          	beq	a4,a3,800014cc <__sflush_r+0xcc>
    800014c6:	[38;5;192m|[0m  [38;5;184m|[0m  [38;5;157m|[0m  [38;5;229m|[0m  [38;5;129m|[0m  [38;5;143m|[0m     [38;5;171m|[0m  [38;5;153m|[0m   46d9                	li	a3,22
    800014c8:	[38;5;192m|[0m  [38;5;184m|[0m  [38;5;157m|[0m  [38;5;229m|[0m  [38;5;129m|[0m  [38;5;143m|[0m  [38;5;181m/[38;5;181m-[38;5;181m-[38;5;171m|[38;5;181m-[38;5;181m-[38;5;153m|[38;5;181m-[38;5;181m-[0m 04d71963          	bne	a4,a3,8000151a <__sflush_r+0x11a>
    800014cc:	[38;5;192m|[0m  [38;5;184m|[0m  [38;5;157m|[0m  [38;5;229m|[0m  [38;5;129m|[0m  [38;5;143m|[0m  [38;5;181m|[0m  [38;5;171m|[0m  [38;5;153m\[38;5;153m-[38;5;153m>[0m 6c1c                	ld	a5,24(s0)
    800014ce:	[38;5;192m|[0m  [38;5;184m|[0m  [38;5;157m|[0m  [38;5;229m|[0m  [38;5;129m|[0m  [38;5;143m|[0m  [38;5;181m|[0m  [38;5;171m|[0m      00042423          	sw	zero,8(s0)
    800014d2:	[38;5;192m|[0m  [38;5;184m|[0m  [38;5;157m|[0m  [38;5;229m|[0m  [38;5;129m|[0m  [38;5;143m|[0m  [38;5;181m|[0m  [38;5;171m|[0m      e01c                	sd	a5,0(s0)
    800014d4:	[38;5;192m|[0m  [38;5;184m|[0m  [38;5;157m|[0m  [38;5;229m|[0m  [38;5;129m|[0m  [38;5;143m\[38;5;143m-[38;5;143m-[38;5;181m|[38;5;143m-[38;5;143m-[38;5;171m|[38;5;143m-[38;5;143m-[38;5;143m-[38;5;143m-[38;5;143m-[0m b745                	j	80001474 <__sflush_r+0x74>
    800014d6:	[38;5;192m|[0m  [38;5;184m|[0m  [38;5;157m|[0m  [38;5;229m|[0m  [38;5;129m|[0m     [38;5;181m|[0m  [38;5;171m\[38;5;171m-[38;5;171m-[38;5;171m-[38;5;171m-[38;5;171m>[0m 6c18                	ld	a4,24(s0)
    800014d8:	[38;5;192m|[0m  [38;5;184m|[0m  [38;5;157m|[0m  [38;5;229m|[0m  [38;5;129m|[0m     [38;5;181m|[0m         83b1                	srli	a5,a5,0xc
    800014da:	[38;5;192m|[0m  [38;5;184m|[0m  [38;5;157m|[0m  [38;5;229m|[0m  [38;5;129m|[0m     [38;5;181m|[0m         00042423          	sw	zero,8(s0)
    800014de:	[38;5;192m|[0m  [38;5;184m|[0m  [38;5;157m|[0m  [38;5;229m|[0m  [38;5;129m|[0m     [38;5;181m|[0m         e018                	sd	a4,0(s0)
    800014e0:	[38;5;192m|[0m  [38;5;184m|[0m  [38;5;157m|[0m  [38;5;229m|[0m  [38;5;129m|[0m     [38;5;181m|[0m         8b85                	andi	a5,a5,1
    800014e2:	[38;5;192m|[0m  [38;5;184m|[0m  [38;5;157m\[38;5;157m-[38;5;157m-[38;5;229m|[38;5;157m-[38;5;157m-[38;5;129m|[38;5;157m-[38;5;157m-[38;5;157m-[38;5;157m-[38;5;157m-[38;5;181m|[38;5;157m-[38;5;157m-[38;5;157m-[38;5;157m-[38;5;157m-[38;5;157m-[38;5;157m-[38;5;157m-[0m b779                	j	80001470 <__sflush_r+0x70>
    800014e4:	[38;5;192m|[0m  [38;5;184m\[38;5;184m-[38;5;184m-[38;5;184m-[38;5;184m-[38;5;184m-[38;5;229m|[38;5;184m-[38;5;184m-[38;5;129m|[38;5;184m-[38;5;184m-[38;5;184m-[38;5;184m-[38;5;184m-[38;5;181m|[38;5;184m-[38;5;184m-[38;5;184m-[38;5;184m-[38;5;184m-[38;5;184m-[38;5;184m-[38;5;184m>[0m 0185b983          	ld	s3,24(a1)
    800014e8:	[38;5;192m+[38;5;192m-[38;5;192m-[38;5;192m-[38;5;192m-[38;5;192m-[38;5;192m-[38;5;192m-[38;5;192m-[38;5;229m|[38;5;192m-[38;5;192m-[38;5;129m|[38;5;192m-[38;5;192m-[38;5;192m-[38;5;192m-[38;5;192m-[38;5;181m|[38;5;192m-[38;5;192m-[38;5;192m-[38;5;192m-[38;5;192m-[38;5;192m-[38;5;192m-[38;5;192m-[0m fc0986e3          	beqz	s3,800014b4 <__sflush_r+0xb4>
    800014ec:	[38;5;192m|[0m        [38;5;229m|[0m  [38;5;129m|[0m     [38;5;181m|[0m         0005b903          	ld	s2,0(a1)
    800014f0:	[38;5;192m|[0m        [38;5;229m|[0m  [38;5;129m|[0m     [38;5;181m|[0m         8b8d                	andi	a5,a5,3
    800014f2:	[38;5;192m|[0m        [38;5;229m|[0m  [38;5;129m|[0m     [38;5;181m|[0m         0135b023          	sd	s3,0(a1)
    800014f6:	[38;5;192m|[0m        [38;5;229m|[0m  [38;5;129m|[0m     [38;5;181m|[0m         4139093b          	subw	s2,s2,s3
    800014fa:	[38;5;192m|[0m        [38;5;229m|[0m  [38;5;129m|[0m     [38;5;181m|[0m         4701                	li	a4,0
    800014fc:	[38;5;192m|[0m        [38;5;229m|[0m  [38;5;129m|[0m     [38;5;181m|[0m     [38;5;166m/--[0m e391                	bnez	a5,80001500 <__sflush_r+0x100>
    800014fe:	[38;5;192m|[0m        [38;5;229m|[0m  [38;5;129m|[0m     [38;5;181m|[0m     [38;5;166m|[0m   5198                	lw	a4,32(a1)
    80001500:	[38;5;192m|[0m        [38;5;229m|[0m  [38;5;129m|[0m     [38;5;181m|[0m     [38;5;166m\->[0m c458                	sw	a4,12(s0)
    80001502:	[38;5;192m\[38;5;192m-[38;5;192m-[38;5;192m-[38;5;192m-[38;5;192m-[38;5;192m-[38;5;192m-[38;5;192m-[38;5;229m|[38;5;192m-[38;5;192m-[38;5;129m|[38;5;192m-[38;5;192m-[38;5;192m-[38;5;192m-[38;5;192m-[38;5;181m|[38;5;192m-[38;5;192m-[38;5;134m/----[38;5;192mX[0m fb2059e3          	blez	s2,800014b4 <__sflush_r+0xb4>
    80001506:	         [38;5;229m|[0m  [38;5;129m|[0m     [38;5;181m|[0m  [38;5;134m|[0m      643c                	ld	a5,72(s0)
    80001508:	         [38;5;229m|[0m  [38;5;129m|[0m     [38;5;181m|[0m  [38;5;134m|[0m      7c0c                	ld	a1,56(s0)
    8000150a:	         [38;5;229m|[0m  [38;5;129m|[0m     [38;5;181m|[0m  [38;5;134m|[0m      86ca                	mv	a3,s2
    8000150c:	         [38;5;229m|[0m  [38;5;129m|[0m     [38;5;181m|[0m  [38;5;134m|[0m      864e                	mv	a2,s3
    8000150e:	         [38;5;229m|[0m  [38;5;129m|[0m     [38;5;181m|[0m  [38;5;134m|[0m      8526                	mv	a0,s1
    80001510:	         [38;5;229m|[0m  [38;5;129m|[0m     [38;5;181m|[0m  [38;5;134m|[0m      9782                	jalr	a5
    80001512:	         [38;5;229m|[0m  [38;5;129m|[0m     [38;5;181m|[0m  [38;5;134m|[0m  [38;5;228m/--[0m 02a04063          	bgtz	a0,80001532 <__sflush_r+0x132>
    80001516:	         [38;5;229m|[0m  [38;5;129m\-----[38;5;181m|[38;5;129m--[38;5;134m|[38;5;129m--[38;5;228m|[38;5;129m->[0m 01041783          	lh	a5,16(s0)
    8000151a:	         [38;5;229m|[0m        [38;5;181m\[38;5;181m-[38;5;181m-[38;5;134m|[38;5;181m-[38;5;181m-[38;5;228m|[38;5;181m-[38;5;181m>[0m 0407e793          	ori	a5,a5,64
    8000151e:	         [38;5;229m|[0m           [38;5;134m|[0m  [38;5;228m|[0m   00f41823          	sh	a5,16(s0)
    80001522:	         [38;5;229m|[0m           [38;5;134m|[0m  [38;5;228m|[0m   557d                	li	a0,-1
    80001524:	         [38;5;229m\-----------[38;5;134m|[38;5;229m--[38;5;228m|[38;5;229m->[0m 70a2                	ld	ra,40(sp)
    80001526:	                     [38;5;134m|[0m  [38;5;228m|[0m   7402                	ld	s0,32(sp)
    80001528:	                     [38;5;134m|[0m  [38;5;228m|[0m   64e2                	ld	s1,24(sp)
    8000152a:	                     [38;5;134m|[0m  [38;5;228m|[0m   6942                	ld	s2,16(sp)
    8000152c:	                     [38;5;134m|[0m  [38;5;228m|[0m   69a2                	ld	s3,8(sp)
    8000152e:	                     [38;5;134m|[0m  [38;5;228m|[0m   6145                	addi	sp,sp,48
    80001530:	                     [38;5;134m|[0m  [38;5;228m|[0m   8082                	ret
    80001532:	                     [38;5;134m|[0m  [38;5;228m\->[0m 99aa                	add	s3,s3,a0
    80001534:	                     [38;5;134m|[0m      40a9093b          	subw	s2,s2,a0
    80001538:	                     [38;5;134m\-----[0m b7e9                	j	80001502 <__sflush_r+0x102>

000000008000153a <_fflush_r>:
    8000153a:	             6d9c                	ld	a5,24(a1)
    8000153c:	[38;5;131m/[38;5;131m-[38;5;131m-[38;5;131m-[38;5;131m-[38;5;131m-[38;5;131m-[38;5;131m-[38;5;131m-[38;5;131m-[38;5;131m-[38;5;131m-[0m c3a5                	beqz	a5,8000159c <_fflush_r+0x62>
    8000153e:	[38;5;131m|[0m            1101                	addi	sp,sp,-32
    80001540:	[38;5;131m|[0m            e822                	sd	s0,16(sp)
    80001542:	[38;5;131m|[0m            ec06                	sd	ra,24(sp)
    80001544:	[38;5;131m|[0m            842a                	mv	s0,a0
    80001546:	[38;5;131m|[0m        [38;5;163m/--[0m c519                	beqz	a0,80001554 <_fflush_r+0x1a>
    80001548:	[38;5;131m|[0m        [38;5;163m|[0m   591c                	lw	a5,48(a0)
    8000154a:	[38;5;131m|[0m        [38;5;163m+--[0m e789                	bnez	a5,80001554 <_fflush_r+0x1a>
    8000154c:	[38;5;131m|[0m        [38;5;163m|[0m   e42e                	sd	a1,8(sp)
    8000154e:	[38;5;131m|[0m        [38;5;163m|[0m   d4cff0ef          	jal	ra,80000a9a <__sinit>
    80001552:	[38;5;131m|[0m        [38;5;163m|[0m   65a2                	ld	a1,8(sp)
    80001554:	[38;5;131m|[0m        [38;5;163m\->[0m 00001797          	auipc	a5,0x1
    80001558:	[38;5;131m|[0m            17c78793          	addi	a5,a5,380 # 800026d0 <__sf_fake_stdin>
    8000155c:	[38;5;131m|[0m        [38;5;153m/--[0m 00f59b63          	bne	a1,a5,80001572 <_fflush_r+0x38>
    80001560:	[38;5;131m|[0m        [38;5;153m|[0m   640c                	ld	a1,8(s0)
    80001562:	[38;5;131m|[0m  [38;5;171m/[38;5;171m-[38;5;171m-[38;5;171m-[38;5;171m-[38;5;171m-[38;5;153m|[38;5;171m-[38;5;171m>[0m 01059783          	lh	a5,16(a1)
    80001566:	[38;5;131m|[0m  [38;5;171m|[0m  [38;5;186m/[38;5;186m-[38;5;186m-[38;5;153m|[38;5;186m-[38;5;186m-[0m c795                	beqz	a5,80001592 <_fflush_r+0x58>
    80001568:	[38;5;131m|[0m  [38;5;171m|[0m  [38;5;186m|[0m  [38;5;153m|[0m   8522                	mv	a0,s0
    8000156a:	[38;5;131m|[0m  [38;5;171m|[0m  [38;5;186m|[0m  [38;5;153m|[0m   6442                	ld	s0,16(sp)
    8000156c:	[38;5;131m|[0m  [38;5;171m|[0m  [38;5;186m|[0m  [38;5;153m|[0m   60e2                	ld	ra,24(sp)
    8000156e:	[38;5;131m|[0m  [38;5;171m|[0m  [38;5;186m|[0m  [38;5;153m|[0m   6105                	addi	sp,sp,32
    80001570:	[38;5;131m|[0m  [38;5;171m|[0m  [38;5;186m|[0m  [38;5;153m|[0m   bd41                	j	80001400 <__sflush_r>
    80001572:	[38;5;131m|[0m  [38;5;171m|[0m  [38;5;186m|[0m  [38;5;153m\->[0m 00001797          	auipc	a5,0x1
    80001576:	[38;5;131m|[0m  [38;5;171m|[0m  [38;5;186m|[0m      12678793          	addi	a5,a5,294 # 80002698 <__sf_fake_stdout>
    8000157a:	[38;5;131m|[0m  [38;5;171m|[0m  [38;5;186m|[0m  [38;5;145m/[38;5;145m-[38;5;145m-[0m 00f59463          	bne	a1,a5,80001582 <_fflush_r+0x48>
    8000157e:	[38;5;131m|[0m  [38;5;171m|[0m  [38;5;186m|[0m  [38;5;145m|[0m   680c                	ld	a1,16(s0)
    80001580:	[38;5;131m|[0m  [38;5;171m+[38;5;171m-[38;5;171m-[38;5;186m|[38;5;171m-[38;5;171m-[38;5;145m|[38;5;171m-[38;5;171m-[0m b7cd                	j	80001562 <_fflush_r+0x28>
    80001582:	[38;5;131m|[0m  [38;5;171m|[0m  [38;5;186m|[0m  [38;5;145m\[38;5;145m-[38;5;145m>[0m 00001797          	auipc	a5,0x1
    80001586:	[38;5;131m|[0m  [38;5;171m|[0m  [38;5;186m|[0m      0de78793          	addi	a5,a5,222 # 80002660 <__sf_fake_stderr>
    8000158a:	[38;5;131m|[0m  [38;5;171m+[38;5;171m-[38;5;171m-[38;5;186m|[38;5;171m-[38;5;171m-[38;5;171m-[38;5;171m-[38;5;171m-[0m fcf59ce3          	bne	a1,a5,80001562 <_fflush_r+0x28>
    8000158e:	[38;5;131m|[0m  [38;5;171m|[0m  [38;5;186m|[0m      6c0c                	ld	a1,24(s0)
    80001590:	[38;5;131m|[0m  [38;5;171m\[38;5;171m-[38;5;171m-[38;5;186m|[38;5;171m-[38;5;171m-[38;5;171m-[38;5;171m-[38;5;171m-[0m bfc9                	j	80001562 <_fflush_r+0x28>
    80001592:	[38;5;131m|[0m     [38;5;186m\[38;5;186m-[38;5;186m-[38;5;186m-[38;5;186m-[38;5;186m>[0m 60e2                	ld	ra,24(sp)
    80001594:	[38;5;131m|[0m            6442                	ld	s0,16(sp)
    80001596:	[38;5;131m|[0m            4501                	li	a0,0
    80001598:	[38;5;131m|[0m            6105                	addi	sp,sp,32
    8000159a:	[38;5;131m|[0m            8082                	ret
    8000159c:	[38;5;131m\[38;5;131m-[38;5;131m-[38;5;131m-[38;5;131m-[38;5;131m-[38;5;131m-[38;5;131m-[38;5;131m-[38;5;131m-[38;5;131m-[38;5;131m>[0m 4501                	li	a0,0
    8000159e:	             8082                	ret

00000000800015a0 <fflush>:
    800015a0:	    85aa                	mv	a1,a0
    800015a2:	[38;5;229m/--[0m e909                	bnez	a0,800015b4 <fflush+0x14>
    800015a4:	[38;5;229m|[0m   00000597          	auipc	a1,0x0
    800015a8:	[38;5;229m|[0m   f9658593          	addi	a1,a1,-106 # 8000153a <_fflush_r>
    800015ac:	[38;5;229m|[0m   8201b503          	ld	a0,-2016(gp) # 800028e0 <_global_impure_ptr>
    800015b0:	[38;5;229m|[0m   e86ff06f          	j	80000c36 <_fwalk_reent>
    800015b4:	[38;5;229m\->[0m 00001517          	auipc	a0,0x1
    800015b8:	    30c53503          	ld	a0,780(a0) # 800028c0 <_impure_ptr>
    800015bc:	    bfbd                	j	8000153a <_fflush_r>

00000000800015be <__sfvwrite_r>:
    800015be:	                                                 6a1c                	ld	a5,16(a2)
    800015c0:	                                             [38;5;147m/[38;5;147m-[38;5;147m-[0m e399                	bnez	a5,800015c6 <__sfvwrite_r+0x8>
    800015c2:	                                             [38;5;147m|[0m   4501                	li	a0,0
    800015c4:	                                             [38;5;147m|[0m   8082                	ret
    800015c6:	                                             [38;5;147m\[38;5;147m-[38;5;147m>[0m 0105d783          	lhu	a5,16(a1)
    800015ca:	                                                 7159                	addi	sp,sp,-112
    800015cc:	                                                 f0a2                	sd	s0,96(sp)
    800015ce:	                                                 e8ca                	sd	s2,80(sp)
    800015d0:	                                                 e0d2                	sd	s4,64(sp)
    800015d2:	                                                 f486                	sd	ra,104(sp)
    800015d4:	                                                 eca6                	sd	s1,88(sp)
    800015d6:	                                                 e4ce                	sd	s3,72(sp)
    800015d8:	                                                 fc56                	sd	s5,56(sp)
    800015da:	                                                 f85a                	sd	s6,48(sp)
    800015dc:	                                                 f45e                	sd	s7,40(sp)
    800015de:	                                                 f062                	sd	s8,32(sp)
    800015e0:	                                                 ec66                	sd	s9,24(sp)
    800015e2:	                                                 e86a                	sd	s10,16(sp)
    800015e4:	                                                 e46e                	sd	s11,8(sp)
    800015e6:	                                                 8ba1                	andi	a5,a5,8
    800015e8:	                                                 892a                	mv	s2,a0
    800015ea:	                                                 842e                	mv	s0,a1
    800015ec:	                                                 8a32                	mv	s4,a2
    800015ee:	                                       [38;5;206m/--------[0m c3d9                	beqz	a5,80001674 <__sfvwrite_r+0xb6>
    800015f0:	                                       [38;5;206m|[0m         6d9c                	ld	a5,24(a1)
    800015f2:	                                       [38;5;206m+--------[0m c3c9                	beqz	a5,80001674 <__sfvwrite_r+0xb6>
    800015f4:	                                    [38;5;170m/--[38;5;206m|[38;5;170m------->[0m 01041783          	lh	a5,16(s0)
    800015f8:	                                    [38;5;170m|[0m  [38;5;206m|[0m         000a3983          	ld	s3,0(s4)
    800015fc:	                                    [38;5;170m|[0m  [38;5;206m|[0m         0027f713          	andi	a4,a5,2
    80001600:	                                 [38;5;147m/[38;5;147m-[38;5;147m-[38;5;170m|[38;5;147m-[38;5;147m-[38;5;206m|[38;5;147m-[38;5;147m-[38;5;147m-[38;5;147m-[38;5;147m-[38;5;147m-[38;5;147m-[38;5;147m-[0m eb79                	bnez	a4,800016d6 <__sfvwrite_r+0x118>
    80001602:	                                 [38;5;147m|[0m  [38;5;170m|[0m  [38;5;206m|[0m         8b85                	andi	a5,a5,1
    80001604:	                                 [38;5;147m|[0m  [38;5;170m|[0m  [38;5;206m|[0m         4a81                	li	s5,0
    80001606:	                     [38;5;127m/-----------[38;5;147m|[38;5;127m--[38;5;170m|[38;5;127m--[38;5;206m|[38;5;127m--------[0m 14078763          	beqz	a5,80001754 <__sfvwrite_r+0x196>
    8000160a:	                     [38;5;127m|[0m           [38;5;147m|[0m  [38;5;170m|[0m  [38;5;206m|[0m         4501                	li	a0,0
    8000160c:	                     [38;5;127m|[0m           [38;5;147m|[0m  [38;5;170m|[0m  [38;5;206m|[0m         4b81                	li	s7,0
    8000160e:	                     [38;5;127m|[0m           [38;5;147m|[0m  [38;5;170m|[0m  [38;5;206m|[0m         4b01                	li	s6,0
    80001610:	            [38;5;231m/[38;5;231m-[38;5;231m-[38;5;231m-[38;5;231m-[38;5;231m-[38;5;231m-[38;5;231m-[38;5;231m-[38;5;127m|[38;5;231m-[38;5;231m-[38;5;231m-[38;5;231m-[38;5;231m-[38;5;231m-[38;5;231m-[38;5;231m-[38;5;231m-[38;5;231m-[38;5;231m-[38;5;147m|[38;5;231m-[38;5;231m-[38;5;170m|[38;5;231m-[38;5;231m-[38;5;206m|[38;5;231m-[38;5;231m-[38;5;133m/----[38;5;231mX[0m 220b0763          	beqz	s6,8000183e <__sfvwrite_r+0x280>
    80001614:	         [38;5;194m/[38;5;194m-[38;5;194m-[38;5;231m|[38;5;194m-[38;5;194m-[38;5;194m-[38;5;194m-[38;5;194m-[38;5;194m-[38;5;194m-[38;5;194m-[38;5;127m|[38;5;194m-[38;5;194m-[38;5;194m-[38;5;194m-[38;5;194m-[38;5;194m-[38;5;194m-[38;5;194m-[38;5;194m-[38;5;194m-[38;5;194m-[38;5;147m|[38;5;194m-[38;5;194m-[38;5;170m|[38;5;194m-[38;5;194m-[38;5;206m|[38;5;194m-[38;5;194m-[38;5;133m|[38;5;194m-[38;5;194m-[38;5;194m-[38;5;194m-[38;5;194m-[0m 22050d63          	beqz	a0,8000184e <__sfvwrite_r+0x290>
    80001618:	[38;5;128m/[38;5;128m-[38;5;128m-[38;5;128m-[38;5;128m-[38;5;128m-[38;5;128m-[38;5;128m-[38;5;128m-[38;5;194m|[38;5;128m-[38;5;128m-[38;5;231m|[38;5;128m-[38;5;128m-[38;5;128m-[38;5;128m-[38;5;128m-[38;5;128m-[38;5;128m-[38;5;128m-[38;5;127m|[38;5;128m-[38;5;128m-[38;5;128m-[38;5;128m-[38;5;128m-[38;5;128m-[38;5;128m-[38;5;128m-[38;5;128m-[38;5;128m-[38;5;128m-[38;5;147m|[38;5;128m-[38;5;128m-[38;5;170m|[38;5;128m-[38;5;128m-[38;5;206m|[38;5;128m-[38;5;128m-[38;5;133m|[38;5;128m-[38;5;128m-[38;5;128m-[38;5;128m-[38;5;128m>[0m 8c56                	mv	s8,s5
    8000161a:	[38;5;128m|[0m        [38;5;194m|[0m  [38;5;231m|[0m        [38;5;127m|[0m           [38;5;147m|[0m  [38;5;170m|[0m  [38;5;206m|[0m  [38;5;133m|[0m  [38;5;126m/--[0m 015b7363          	bgeu	s6,s5,80001620 <__sfvwrite_r+0x62>
    8000161e:	[38;5;128m|[0m        [38;5;194m|[0m  [38;5;231m|[0m        [38;5;127m|[0m           [38;5;147m|[0m  [38;5;170m|[0m  [38;5;206m|[0m  [38;5;133m|[0m  [38;5;126m|[0m   8c5a                	mv	s8,s6
    80001620:	[38;5;128m|[0m        [38;5;194m|[0m  [38;5;231m|[0m        [38;5;127m|[0m           [38;5;147m|[0m  [38;5;170m|[0m  [38;5;206m|[0m  [38;5;133m|[0m  [38;5;126m\->[0m 6008                	ld	a0,0(s0)
    80001622:	[38;5;128m|[0m        [38;5;194m|[0m  [38;5;231m|[0m        [38;5;127m|[0m           [38;5;147m|[0m  [38;5;170m|[0m  [38;5;206m|[0m  [38;5;133m|[0m      6c1c                	ld	a5,24(s0)
    80001624:	[38;5;128m|[0m        [38;5;194m|[0m  [38;5;231m|[0m        [38;5;127m|[0m           [38;5;147m|[0m  [38;5;170m|[0m  [38;5;206m|[0m  [38;5;133m|[0m      4444                	lw	s1,12(s0)
    80001626:	[38;5;128m|[0m        [38;5;194m|[0m  [38;5;231m|[0m        [38;5;127m|[0m           [38;5;147m|[0m  [38;5;170m|[0m  [38;5;206m|[0m  [38;5;133m|[0m      5014                	lw	a3,32(s0)
    80001628:	[38;5;128m|[0m     [38;5;164m/[38;5;164m-[38;5;164m-[38;5;194m|[38;5;164m-[38;5;164m-[38;5;231m|[38;5;164m-[38;5;164m-[38;5;164m-[38;5;164m-[38;5;164m-[38;5;164m-[38;5;164m-[38;5;164m-[38;5;127m|[38;5;164m-[38;5;164m-[38;5;164m-[38;5;164m-[38;5;164m-[38;5;164m-[38;5;164m-[38;5;164m-[38;5;164m-[38;5;164m-[38;5;164m-[38;5;147m|[38;5;164m-[38;5;164m-[38;5;170m|[38;5;164m-[38;5;164m-[38;5;206m|[38;5;164m-[38;5;164m-[38;5;133m|[38;5;164m-[38;5;164m-[38;5;164m-[38;5;164m-[38;5;164m-[0m 24a7f063          	bgeu	a5,a0,80001868 <__sfvwrite_r+0x2aa>
    8000162c:	[38;5;128m|[0m     [38;5;164m|[0m  [38;5;194m|[0m  [38;5;231m|[0m        [38;5;127m|[0m           [38;5;147m|[0m  [38;5;170m|[0m  [38;5;206m|[0m  [38;5;133m|[0m      9cb5                	addw	s1,s1,a3
    8000162e:	[38;5;128m|[0m     [38;5;164m+[38;5;164m-[38;5;164m-[38;5;194m|[38;5;164m-[38;5;164m-[38;5;231m|[38;5;164m-[38;5;164m-[38;5;164m-[38;5;164m-[38;5;164m-[38;5;164m-[38;5;164m-[38;5;164m-[38;5;127m|[38;5;164m-[38;5;164m-[38;5;164m-[38;5;164m-[38;5;164m-[38;5;164m-[38;5;164m-[38;5;164m-[38;5;164m-[38;5;164m-[38;5;164m-[38;5;147m|[38;5;164m-[38;5;164m-[38;5;170m|[38;5;164m-[38;5;164m-[38;5;206m|[38;5;164m-[38;5;164m-[38;5;133m|[38;5;164m-[38;5;164m-[38;5;164m-[38;5;164m-[38;5;164m-[0m 2384dd63          	bge	s1,s8,80001868 <__sfvwrite_r+0x2aa>
    80001632:	[38;5;128m|[0m     [38;5;164m|[0m  [38;5;194m|[0m  [38;5;231m|[0m        [38;5;127m|[0m           [38;5;147m|[0m  [38;5;170m|[0m  [38;5;206m|[0m  [38;5;133m|[0m      85de                	mv	a1,s7
    80001634:	[38;5;128m|[0m     [38;5;164m|[0m  [38;5;194m|[0m  [38;5;231m|[0m        [38;5;127m|[0m           [38;5;147m|[0m  [38;5;170m|[0m  [38;5;206m|[0m  [38;5;133m|[0m      8626                	mv	a2,s1
    80001636:	[38;5;128m|[0m     [38;5;164m|[0m  [38;5;194m|[0m  [38;5;231m|[0m        [38;5;127m|[0m           [38;5;147m|[0m  [38;5;170m|[0m  [38;5;206m|[0m  [38;5;133m|[0m      3c2000ef          	jal	ra,800019f8 <memmove>
    8000163a:	[38;5;128m|[0m     [38;5;164m|[0m  [38;5;194m|[0m  [38;5;231m|[0m        [38;5;127m|[0m           [38;5;147m|[0m  [38;5;170m|[0m  [38;5;206m|[0m  [38;5;133m|[0m      601c                	ld	a5,0(s0)
    8000163c:	[38;5;128m|[0m     [38;5;164m|[0m  [38;5;194m|[0m  [38;5;231m|[0m        [38;5;127m|[0m           [38;5;147m|[0m  [38;5;170m|[0m  [38;5;206m|[0m  [38;5;133m|[0m      85a2                	mv	a1,s0
    8000163e:	[38;5;128m|[0m     [38;5;164m|[0m  [38;5;194m|[0m  [38;5;231m|[0m        [38;5;127m|[0m           [38;5;147m|[0m  [38;5;170m|[0m  [38;5;206m|[0m  [38;5;133m|[0m      854a                	mv	a0,s2
    80001640:	[38;5;128m|[0m     [38;5;164m|[0m  [38;5;194m|[0m  [38;5;231m|[0m        [38;5;127m|[0m           [38;5;147m|[0m  [38;5;170m|[0m  [38;5;206m|[0m  [38;5;133m|[0m      97a6                	add	a5,a5,s1
    80001642:	[38;5;128m|[0m     [38;5;164m|[0m  [38;5;194m|[0m  [38;5;231m|[0m        [38;5;127m|[0m           [38;5;147m|[0m  [38;5;170m|[0m  [38;5;206m|[0m  [38;5;133m|[0m      e01c                	sd	a5,0(s0)
    80001644:	[38;5;128m|[0m     [38;5;164m|[0m  [38;5;194m|[0m  [38;5;231m|[0m        [38;5;127m|[0m           [38;5;147m|[0m  [38;5;170m|[0m  [38;5;206m|[0m  [38;5;133m|[0m      ef7ff0ef          	jal	ra,8000153a <_fflush_r>
    80001648:	[38;5;128m|[0m     [38;5;164m|[0m  [38;5;194m|[0m  [38;5;231m|[0m  [38;5;155m/[38;5;155m-[38;5;155m-[38;5;155m-[38;5;155m-[38;5;155m-[38;5;127m|[38;5;155m-[38;5;155m-[38;5;155m-[38;5;155m-[38;5;155m-[38;5;155m-[38;5;155m-[38;5;155m-[38;5;155m-[38;5;155m-[38;5;155m-[38;5;147m|[38;5;155m-[38;5;155m-[38;5;170m|[38;5;155m-[38;5;155m-[38;5;206m|[38;5;155m-[38;5;155m-[38;5;133m|[38;5;155m-[38;5;155m-[38;5;155m-[38;5;155m-[38;5;155m-[0m 0e051f63          	bnez	a0,80001746 <__sfvwrite_r+0x188>
    8000164c:	[38;5;128m|[0m  [38;5;184m/--[38;5;164m|[38;5;184m--[38;5;194m|[38;5;184m--[38;5;231m|[38;5;184m--[38;5;155m|[38;5;184m-----[38;5;127m|[38;5;184m-----------[38;5;147m|[38;5;184m--[38;5;170m|[38;5;184m--[38;5;206m|[38;5;184m--[38;5;133m|[38;5;184m---->[0m 409a8abb          	subw	s5,s5,s1
    80001650:	[38;5;128m|[0m  [38;5;184m|[0m  [38;5;164m|[0m  [38;5;194m|[0m  [38;5;231m|[0m  [38;5;155m|[0m     [38;5;127m|[0m           [38;5;147m|[0m  [38;5;170m|[0m  [38;5;206m|[0m  [38;5;133m|[0m      4505                	li	a0,1
    80001652:	[38;5;128m|[0m  [38;5;184m|[0m  [38;5;164m|[0m  [38;5;194m|[0m  [38;5;231m|[0m  [38;5;155m|[0m     [38;5;127m|[0m           [38;5;147m|[0m  [38;5;170m|[0m  [38;5;206m|[0m  [38;5;133m|[0m  [38;5;176m/[38;5;176m-[38;5;176m-[0m 000a9763          	bnez	s5,80001660 <__sfvwrite_r+0xa2>
    80001656:	[38;5;128m|[0m  [38;5;184m|[0m  [38;5;164m|[0m  [38;5;194m|[0m  [38;5;231m|[0m  [38;5;155m|[0m     [38;5;127m|[0m           [38;5;147m|[0m  [38;5;170m|[0m  [38;5;206m|[0m  [38;5;133m|[0m  [38;5;176m|[0m   85a2                	mv	a1,s0
    80001658:	[38;5;128m|[0m  [38;5;184m|[0m  [38;5;164m|[0m  [38;5;194m|[0m  [38;5;231m|[0m  [38;5;155m|[0m     [38;5;127m|[0m           [38;5;147m|[0m  [38;5;170m|[0m  [38;5;206m|[0m  [38;5;133m|[0m  [38;5;176m|[0m   854a                	mv	a0,s2
    8000165a:	[38;5;128m|[0m  [38;5;184m|[0m  [38;5;164m|[0m  [38;5;194m|[0m  [38;5;231m|[0m  [38;5;155m|[0m     [38;5;127m|[0m           [38;5;147m|[0m  [38;5;170m|[0m  [38;5;206m|[0m  [38;5;133m|[0m  [38;5;176m|[0m   ee1ff0ef          	jal	ra,8000153a <_fflush_r>
    8000165e:	[38;5;128m|[0m  [38;5;184m|[0m  [38;5;164m|[0m  [38;5;194m|[0m  [38;5;231m|[0m  [38;5;155m+[38;5;155m-[38;5;155m-[38;5;155m-[38;5;155m-[38;5;155m-[38;5;127m|[38;5;155m-[38;5;155m-[38;5;155m-[38;5;155m-[38;5;155m-[38;5;155m-[38;5;155m-[38;5;155m-[38;5;155m-[38;5;155m-[38;5;155m-[38;5;147m|[38;5;155m-[38;5;155m-[38;5;170m|[38;5;155m-[38;5;155m-[38;5;206m|[38;5;155m-[38;5;155m-[38;5;133m|[38;5;155m-[38;5;155m-[38;5;176m|[38;5;155m-[38;5;155m-[0m e565                	bnez	a0,80001746 <__sfvwrite_r+0x188>
    80001660:	[38;5;128m|[0m  [38;5;184m|[0m  [38;5;164m|[0m  [38;5;194m|[0m  [38;5;231m|[0m  [38;5;155m|[0m     [38;5;127m|[0m           [38;5;147m|[0m  [38;5;170m|[0m  [38;5;206m|[0m  [38;5;133m|[0m  [38;5;176m\[38;5;176m-[38;5;176m>[0m 010a3783          	ld	a5,16(s4)
    80001664:	[38;5;128m|[0m  [38;5;184m|[0m  [38;5;164m|[0m  [38;5;194m|[0m  [38;5;231m|[0m  [38;5;155m|[0m     [38;5;127m|[0m           [38;5;147m|[0m  [38;5;170m|[0m  [38;5;206m|[0m  [38;5;133m|[0m      9ba6                	add	s7,s7,s1
    80001666:	[38;5;128m|[0m  [38;5;184m|[0m  [38;5;164m|[0m  [38;5;194m|[0m  [38;5;231m|[0m  [38;5;155m|[0m     [38;5;127m|[0m           [38;5;147m|[0m  [38;5;170m|[0m  [38;5;206m|[0m  [38;5;133m|[0m      409b0b33          	sub	s6,s6,s1
    8000166a:	[38;5;128m|[0m  [38;5;184m|[0m  [38;5;164m|[0m  [38;5;194m|[0m  [38;5;231m|[0m  [38;5;155m|[0m     [38;5;127m|[0m           [38;5;147m|[0m  [38;5;170m|[0m  [38;5;206m|[0m  [38;5;133m|[0m      8f85                	sub	a5,a5,s1
    8000166c:	[38;5;128m|[0m  [38;5;184m|[0m  [38;5;164m|[0m  [38;5;194m|[0m  [38;5;231m|[0m  [38;5;155m|[0m     [38;5;127m|[0m           [38;5;147m|[0m  [38;5;170m|[0m  [38;5;206m|[0m  [38;5;133m|[0m      00fa3823          	sd	a5,16(s4)
    80001670:	[38;5;128m|[0m  [38;5;184m|[0m  [38;5;164m|[0m  [38;5;194m|[0m  [38;5;231m|[0m  [38;5;155m|[0m     [38;5;127m|[0m           [38;5;147m|[0m  [38;5;170m|[0m  [38;5;206m|[0m  [38;5;133m\-----[0m f3c5                	bnez	a5,80001610 <__sfvwrite_r+0x52>
    80001672:	[38;5;128m|[0m  [38;5;184m|[0m  [38;5;164m|[0m  [38;5;194m|[0m  [38;5;231m|[0m  [38;5;155m|[0m  [38;5;159m/[38;5;159m-[38;5;159m-[38;5;127m|[38;5;159m-[38;5;159m-[38;5;159m-[38;5;159m-[38;5;159m-[38;5;159m-[38;5;159m-[38;5;159m-[38;5;159m-[38;5;159m-[38;5;159m-[38;5;147m|[38;5;159m-[38;5;159m-[38;5;170m|[38;5;159m-[38;5;159m-[38;5;206m|[38;5;159m-[38;5;159m-[38;5;159m-[38;5;159m-[38;5;159m-[38;5;159m-[38;5;159m-[38;5;159m-[0m a091                	j	800016b6 <__sfvwrite_r+0xf8>
    80001674:	[38;5;128m|[0m  [38;5;184m|[0m  [38;5;164m|[0m  [38;5;194m|[0m  [38;5;231m|[0m  [38;5;155m|[0m  [38;5;159m|[0m  [38;5;127m|[0m           [38;5;147m|[0m  [38;5;170m|[0m  [38;5;206m\------->[0m 85a2                	mv	a1,s0
    80001676:	[38;5;128m|[0m  [38;5;184m|[0m  [38;5;164m|[0m  [38;5;194m|[0m  [38;5;231m|[0m  [38;5;155m|[0m  [38;5;159m|[0m  [38;5;127m|[0m           [38;5;147m|[0m  [38;5;170m|[0m            854a                	mv	a0,s2
    80001678:	[38;5;128m|[0m  [38;5;184m|[0m  [38;5;164m|[0m  [38;5;194m|[0m  [38;5;231m|[0m  [38;5;155m|[0m  [38;5;159m|[0m  [38;5;127m|[0m           [38;5;147m|[0m  [38;5;170m|[0m            c5dff0ef          	jal	ra,800012d4 <__swsetup_r>
    8000167c:	[38;5;128m|[0m  [38;5;184m|[0m  [38;5;164m|[0m  [38;5;194m|[0m  [38;5;231m|[0m  [38;5;155m|[0m  [38;5;159m|[0m  [38;5;127m|[0m           [38;5;147m|[0m  [38;5;170m\-----------[0m dd25                	beqz	a0,800015f4 <__sfvwrite_r+0x36>
    8000167e:	[38;5;128m|[0m  [38;5;184m|[0m  [38;5;164m|[0m  [38;5;194m|[0m  [38;5;231m|[0m  [38;5;155m|[0m  [38;5;159m|[0m  [38;5;127m|[0m           [38;5;147m|[0m  [38;5;220m/---------->[0m 557d                	li	a0,-1
    80001680:	[38;5;128m|[0m  [38;5;184m|[0m  [38;5;164m|[0m  [38;5;194m|[0m  [38;5;231m|[0m  [38;5;155m|[0m  [38;5;159m|[0m  [38;5;127m|[0m           [38;5;147m|[0m  [38;5;220m|[0m     [38;5;181m/[38;5;181m-[38;5;181m-[38;5;181m-[38;5;181m-[38;5;181m-[0m a825                	j	800016b8 <__sfvwrite_r+0xfa>
    80001682:	[38;5;128m|[0m  [38;5;184m|[0m  [38;5;164m|[0m  [38;5;194m|[0m  [38;5;231m|[0m  [38;5;155m|[0m  [38;5;159m|[0m  [38;5;127m|[0m           [38;5;147m|[0m  [38;5;220m|[0m     [38;5;181m|[0m  [38;5;199m/[38;5;199m-[38;5;199m>[0m 0009ba83          	ld	s5,0(s3)
    80001686:	[38;5;128m|[0m  [38;5;184m|[0m  [38;5;164m|[0m  [38;5;194m|[0m  [38;5;231m|[0m  [38;5;155m|[0m  [38;5;159m|[0m  [38;5;127m|[0m           [38;5;147m|[0m  [38;5;220m|[0m     [38;5;181m|[0m  [38;5;199m|[0m   0089b483          	ld	s1,8(s3)
    8000168a:	[38;5;128m|[0m  [38;5;184m|[0m  [38;5;164m|[0m  [38;5;194m|[0m  [38;5;231m|[0m  [38;5;155m|[0m  [38;5;159m|[0m  [38;5;127m|[0m           [38;5;147m|[0m  [38;5;220m|[0m     [38;5;181m|[0m  [38;5;199m|[0m   09c1                	addi	s3,s3,16
    8000168c:	[38;5;128m|[0m  [38;5;184m|[0m  [38;5;164m|[0m  [38;5;194m|[0m  [38;5;231m|[0m  [38;5;155m|[0m  [38;5;159m|[0m  [38;5;127m|[0m           [38;5;147m|[0m  [38;5;220m|[0m  [38;5;193m/[38;5;193m-[38;5;193m-[38;5;181m|[38;5;193m-[38;5;193m-[38;5;199m|[38;5;193m-[38;5;193m>[0m 643c                	ld	a5,72(s0)
    8000168e:	[38;5;128m|[0m  [38;5;184m|[0m  [38;5;164m|[0m  [38;5;194m|[0m  [38;5;231m|[0m  [38;5;155m|[0m  [38;5;159m|[0m  [38;5;127m|[0m           [38;5;147m|[0m  [38;5;220m|[0m  [38;5;193m|[0m  [38;5;181m|[0m  [38;5;199m|[0m   7c0c                	ld	a1,56(s0)
    80001690:	[38;5;128m|[0m  [38;5;184m|[0m  [38;5;164m|[0m  [38;5;194m|[0m  [38;5;231m|[0m  [38;5;155m|[0m  [38;5;159m|[0m  [38;5;127m|[0m           [38;5;147m|[0m  [38;5;220m|[0m  [38;5;193m|[0m  [38;5;181m|[0m  [38;5;199m\[38;5;199m-[38;5;199m-[0m d8ed                	beqz	s1,80001682 <__sfvwrite_r+0xc4>
    80001692:	[38;5;128m|[0m  [38;5;184m|[0m  [38;5;164m|[0m  [38;5;194m|[0m  [38;5;231m|[0m  [38;5;155m|[0m  [38;5;159m|[0m  [38;5;127m|[0m           [38;5;147m|[0m  [38;5;220m|[0m  [38;5;193m|[0m  [38;5;181m|[0m      86a6                	mv	a3,s1
    80001694:	[38;5;128m|[0m  [38;5;184m|[0m  [38;5;164m|[0m  [38;5;194m|[0m  [38;5;231m|[0m  [38;5;155m|[0m  [38;5;159m|[0m  [38;5;127m|[0m           [38;5;147m|[0m  [38;5;220m|[0m  [38;5;193m|[0m  [38;5;181m|[0m  [38;5;227m/--[0m 009b7363          	bgeu	s6,s1,8000169a <__sfvwrite_r+0xdc>
    80001698:	[38;5;128m|[0m  [38;5;184m|[0m  [38;5;164m|[0m  [38;5;194m|[0m  [38;5;231m|[0m  [38;5;155m|[0m  [38;5;159m|[0m  [38;5;127m|[0m           [38;5;147m|[0m  [38;5;220m|[0m  [38;5;193m|[0m  [38;5;181m|[0m  [38;5;227m|[0m   86da                	mv	a3,s6
